ARM GAS  C:\Users\dell\AppData\Local\Temp\ccqOk9Jh.s 			page 1


   1              		.cpu cortex-m3
   2              		.eabi_attribute 20, 1
   3              		.eabi_attribute 21, 1
   4              		.eabi_attribute 23, 3
   5              		.eabi_attribute 24, 1
   6              		.eabi_attribute 25, 1
   7              		.eabi_attribute 26, 1
   8              		.eabi_attribute 30, 1
   9              		.eabi_attribute 34, 1
  10              		.eabi_attribute 18, 4
  11              		.file	"stm32f10x_flash.c"
  12              		.text
  13              	.Ltext0:
  14              		.cfi_sections	.debug_frame
  15              		.section	.text.FLASH_SetLatency,"ax",%progbits
  16              		.align	1
  17              		.global	FLASH_SetLatency
  18              		.arch armv7-m
  19              		.syntax unified
  20              		.thumb
  21              		.thumb_func
  22              		.fpu softvfp
  24              	FLASH_SetLatency:
  25              	.LVL0:
  26              	.LFB29:
  27              		.file 1 "src/Libraries/STM32F10x_StdPeriph_Driver/src/stm32f10x_flash.c"
   1:src/Libraries/STM32F10x_StdPeriph_Driver/src/stm32f10x_flash.c **** /**
   2:src/Libraries/STM32F10x_StdPeriph_Driver/src/stm32f10x_flash.c ****   ******************************************************************************
   3:src/Libraries/STM32F10x_StdPeriph_Driver/src/stm32f10x_flash.c ****   * @file    stm32f10x_flash.c
   4:src/Libraries/STM32F10x_StdPeriph_Driver/src/stm32f10x_flash.c ****   * @author  MCD Application Team
   5:src/Libraries/STM32F10x_StdPeriph_Driver/src/stm32f10x_flash.c ****   * @version V3.5.0
   6:src/Libraries/STM32F10x_StdPeriph_Driver/src/stm32f10x_flash.c ****   * @date    11-March-2011
   7:src/Libraries/STM32F10x_StdPeriph_Driver/src/stm32f10x_flash.c ****   * @brief   This file provides all the FLASH firmware functions.
   8:src/Libraries/STM32F10x_StdPeriph_Driver/src/stm32f10x_flash.c ****   ******************************************************************************
   9:src/Libraries/STM32F10x_StdPeriph_Driver/src/stm32f10x_flash.c ****   * @attention
  10:src/Libraries/STM32F10x_StdPeriph_Driver/src/stm32f10x_flash.c ****   *
  11:src/Libraries/STM32F10x_StdPeriph_Driver/src/stm32f10x_flash.c ****   * THE PRESENT FIRMWARE WHICH IS FOR GUIDANCE ONLY AIMS AT PROVIDING CUSTOMERS
  12:src/Libraries/STM32F10x_StdPeriph_Driver/src/stm32f10x_flash.c ****   * WITH CODING INFORMATION REGARDING THEIR PRODUCTS IN ORDER FOR THEM TO SAVE
  13:src/Libraries/STM32F10x_StdPeriph_Driver/src/stm32f10x_flash.c ****   * TIME. AS A RESULT, STMICROELECTRONICS SHALL NOT BE HELD LIABLE FOR ANY
  14:src/Libraries/STM32F10x_StdPeriph_Driver/src/stm32f10x_flash.c ****   * DIRECT, INDIRECT OR CONSEQUENTIAL DAMAGES WITH RESPECT TO ANY CLAIMS ARISING
  15:src/Libraries/STM32F10x_StdPeriph_Driver/src/stm32f10x_flash.c ****   * FROM THE CONTENT OF SUCH FIRMWARE AND/OR THE USE MADE BY CUSTOMERS OF THE
  16:src/Libraries/STM32F10x_StdPeriph_Driver/src/stm32f10x_flash.c ****   * CODING INFORMATION CONTAINED HEREIN IN CONNECTION WITH THEIR PRODUCTS.
  17:src/Libraries/STM32F10x_StdPeriph_Driver/src/stm32f10x_flash.c ****   *
  18:src/Libraries/STM32F10x_StdPeriph_Driver/src/stm32f10x_flash.c ****   * <h2><center>&copy; COPYRIGHT 2011 STMicroelectronics</center></h2>
  19:src/Libraries/STM32F10x_StdPeriph_Driver/src/stm32f10x_flash.c ****   ******************************************************************************
  20:src/Libraries/STM32F10x_StdPeriph_Driver/src/stm32f10x_flash.c ****   */
  21:src/Libraries/STM32F10x_StdPeriph_Driver/src/stm32f10x_flash.c **** 
  22:src/Libraries/STM32F10x_StdPeriph_Driver/src/stm32f10x_flash.c **** /* Includes ------------------------------------------------------------------*/
  23:src/Libraries/STM32F10x_StdPeriph_Driver/src/stm32f10x_flash.c **** #include "stm32f10x_flash.h"
  24:src/Libraries/STM32F10x_StdPeriph_Driver/src/stm32f10x_flash.c **** 
  25:src/Libraries/STM32F10x_StdPeriph_Driver/src/stm32f10x_flash.c **** /** @addtogroup STM32F10x_StdPeriph_Driver
  26:src/Libraries/STM32F10x_StdPeriph_Driver/src/stm32f10x_flash.c ****   * @{
  27:src/Libraries/STM32F10x_StdPeriph_Driver/src/stm32f10x_flash.c ****   */
  28:src/Libraries/STM32F10x_StdPeriph_Driver/src/stm32f10x_flash.c **** 
  29:src/Libraries/STM32F10x_StdPeriph_Driver/src/stm32f10x_flash.c **** /** @defgroup FLASH 
  30:src/Libraries/STM32F10x_StdPeriph_Driver/src/stm32f10x_flash.c ****   * @brief FLASH driver modules
  31:src/Libraries/STM32F10x_StdPeriph_Driver/src/stm32f10x_flash.c ****   * @{
ARM GAS  C:\Users\dell\AppData\Local\Temp\ccqOk9Jh.s 			page 2


  32:src/Libraries/STM32F10x_StdPeriph_Driver/src/stm32f10x_flash.c ****   */ 
  33:src/Libraries/STM32F10x_StdPeriph_Driver/src/stm32f10x_flash.c **** 
  34:src/Libraries/STM32F10x_StdPeriph_Driver/src/stm32f10x_flash.c **** /** @defgroup FLASH_Private_TypesDefinitions
  35:src/Libraries/STM32F10x_StdPeriph_Driver/src/stm32f10x_flash.c ****   * @{
  36:src/Libraries/STM32F10x_StdPeriph_Driver/src/stm32f10x_flash.c ****   */
  37:src/Libraries/STM32F10x_StdPeriph_Driver/src/stm32f10x_flash.c **** 
  38:src/Libraries/STM32F10x_StdPeriph_Driver/src/stm32f10x_flash.c **** /**
  39:src/Libraries/STM32F10x_StdPeriph_Driver/src/stm32f10x_flash.c ****   * @}
  40:src/Libraries/STM32F10x_StdPeriph_Driver/src/stm32f10x_flash.c ****   */ 
  41:src/Libraries/STM32F10x_StdPeriph_Driver/src/stm32f10x_flash.c **** 
  42:src/Libraries/STM32F10x_StdPeriph_Driver/src/stm32f10x_flash.c **** /** @defgroup FLASH_Private_Defines
  43:src/Libraries/STM32F10x_StdPeriph_Driver/src/stm32f10x_flash.c ****   * @{
  44:src/Libraries/STM32F10x_StdPeriph_Driver/src/stm32f10x_flash.c ****   */ 
  45:src/Libraries/STM32F10x_StdPeriph_Driver/src/stm32f10x_flash.c **** 
  46:src/Libraries/STM32F10x_StdPeriph_Driver/src/stm32f10x_flash.c **** /* Flash Access Control Register bits */
  47:src/Libraries/STM32F10x_StdPeriph_Driver/src/stm32f10x_flash.c **** #define ACR_LATENCY_Mask         ((uint32_t)0x00000038)
  48:src/Libraries/STM32F10x_StdPeriph_Driver/src/stm32f10x_flash.c **** #define ACR_HLFCYA_Mask          ((uint32_t)0xFFFFFFF7)
  49:src/Libraries/STM32F10x_StdPeriph_Driver/src/stm32f10x_flash.c **** #define ACR_PRFTBE_Mask          ((uint32_t)0xFFFFFFEF)
  50:src/Libraries/STM32F10x_StdPeriph_Driver/src/stm32f10x_flash.c **** 
  51:src/Libraries/STM32F10x_StdPeriph_Driver/src/stm32f10x_flash.c **** /* Flash Access Control Register bits */
  52:src/Libraries/STM32F10x_StdPeriph_Driver/src/stm32f10x_flash.c **** #define ACR_PRFTBS_Mask          ((uint32_t)0x00000020) 
  53:src/Libraries/STM32F10x_StdPeriph_Driver/src/stm32f10x_flash.c **** 
  54:src/Libraries/STM32F10x_StdPeriph_Driver/src/stm32f10x_flash.c **** /* Flash Control Register bits */
  55:src/Libraries/STM32F10x_StdPeriph_Driver/src/stm32f10x_flash.c **** #define CR_PG_Set                ((uint32_t)0x00000001)
  56:src/Libraries/STM32F10x_StdPeriph_Driver/src/stm32f10x_flash.c **** #define CR_PG_Reset              ((uint32_t)0x00001FFE) 
  57:src/Libraries/STM32F10x_StdPeriph_Driver/src/stm32f10x_flash.c **** #define CR_PER_Set               ((uint32_t)0x00000002)
  58:src/Libraries/STM32F10x_StdPeriph_Driver/src/stm32f10x_flash.c **** #define CR_PER_Reset             ((uint32_t)0x00001FFD)
  59:src/Libraries/STM32F10x_StdPeriph_Driver/src/stm32f10x_flash.c **** #define CR_MER_Set               ((uint32_t)0x00000004)
  60:src/Libraries/STM32F10x_StdPeriph_Driver/src/stm32f10x_flash.c **** #define CR_MER_Reset             ((uint32_t)0x00001FFB)
  61:src/Libraries/STM32F10x_StdPeriph_Driver/src/stm32f10x_flash.c **** #define CR_OPTPG_Set             ((uint32_t)0x00000010)
  62:src/Libraries/STM32F10x_StdPeriph_Driver/src/stm32f10x_flash.c **** #define CR_OPTPG_Reset           ((uint32_t)0x00001FEF)
  63:src/Libraries/STM32F10x_StdPeriph_Driver/src/stm32f10x_flash.c **** #define CR_OPTER_Set             ((uint32_t)0x00000020)
  64:src/Libraries/STM32F10x_StdPeriph_Driver/src/stm32f10x_flash.c **** #define CR_OPTER_Reset           ((uint32_t)0x00001FDF)
  65:src/Libraries/STM32F10x_StdPeriph_Driver/src/stm32f10x_flash.c **** #define CR_STRT_Set              ((uint32_t)0x00000040)
  66:src/Libraries/STM32F10x_StdPeriph_Driver/src/stm32f10x_flash.c **** #define CR_LOCK_Set              ((uint32_t)0x00000080)
  67:src/Libraries/STM32F10x_StdPeriph_Driver/src/stm32f10x_flash.c **** 
  68:src/Libraries/STM32F10x_StdPeriph_Driver/src/stm32f10x_flash.c **** /* FLASH Mask */
  69:src/Libraries/STM32F10x_StdPeriph_Driver/src/stm32f10x_flash.c **** #define RDPRT_Mask               ((uint32_t)0x00000002)
  70:src/Libraries/STM32F10x_StdPeriph_Driver/src/stm32f10x_flash.c **** #define WRP0_Mask                ((uint32_t)0x000000FF)
  71:src/Libraries/STM32F10x_StdPeriph_Driver/src/stm32f10x_flash.c **** #define WRP1_Mask                ((uint32_t)0x0000FF00)
  72:src/Libraries/STM32F10x_StdPeriph_Driver/src/stm32f10x_flash.c **** #define WRP2_Mask                ((uint32_t)0x00FF0000)
  73:src/Libraries/STM32F10x_StdPeriph_Driver/src/stm32f10x_flash.c **** #define WRP3_Mask                ((uint32_t)0xFF000000)
  74:src/Libraries/STM32F10x_StdPeriph_Driver/src/stm32f10x_flash.c **** #define OB_USER_BFB2             ((uint16_t)0x0008)
  75:src/Libraries/STM32F10x_StdPeriph_Driver/src/stm32f10x_flash.c **** 
  76:src/Libraries/STM32F10x_StdPeriph_Driver/src/stm32f10x_flash.c **** /* FLASH Keys */
  77:src/Libraries/STM32F10x_StdPeriph_Driver/src/stm32f10x_flash.c **** #define RDP_Key                  ((uint16_t)0x00A5)
  78:src/Libraries/STM32F10x_StdPeriph_Driver/src/stm32f10x_flash.c **** #define FLASH_KEY1               ((uint32_t)0x45670123)
  79:src/Libraries/STM32F10x_StdPeriph_Driver/src/stm32f10x_flash.c **** #define FLASH_KEY2               ((uint32_t)0xCDEF89AB)
  80:src/Libraries/STM32F10x_StdPeriph_Driver/src/stm32f10x_flash.c **** 
  81:src/Libraries/STM32F10x_StdPeriph_Driver/src/stm32f10x_flash.c **** /* FLASH BANK address */
  82:src/Libraries/STM32F10x_StdPeriph_Driver/src/stm32f10x_flash.c **** #define FLASH_BANK1_END_ADDRESS   ((uint32_t)0x807FFFF)
  83:src/Libraries/STM32F10x_StdPeriph_Driver/src/stm32f10x_flash.c **** 
  84:src/Libraries/STM32F10x_StdPeriph_Driver/src/stm32f10x_flash.c **** /* Delay definition */   
  85:src/Libraries/STM32F10x_StdPeriph_Driver/src/stm32f10x_flash.c **** #define EraseTimeout          ((uint32_t)0x000B0000)
  86:src/Libraries/STM32F10x_StdPeriph_Driver/src/stm32f10x_flash.c **** #define ProgramTimeout        ((uint32_t)0x00002000)
  87:src/Libraries/STM32F10x_StdPeriph_Driver/src/stm32f10x_flash.c **** /**
  88:src/Libraries/STM32F10x_StdPeriph_Driver/src/stm32f10x_flash.c ****   * @}
ARM GAS  C:\Users\dell\AppData\Local\Temp\ccqOk9Jh.s 			page 3


  89:src/Libraries/STM32F10x_StdPeriph_Driver/src/stm32f10x_flash.c ****   */ 
  90:src/Libraries/STM32F10x_StdPeriph_Driver/src/stm32f10x_flash.c **** 
  91:src/Libraries/STM32F10x_StdPeriph_Driver/src/stm32f10x_flash.c **** /** @defgroup FLASH_Private_Macros
  92:src/Libraries/STM32F10x_StdPeriph_Driver/src/stm32f10x_flash.c ****   * @{
  93:src/Libraries/STM32F10x_StdPeriph_Driver/src/stm32f10x_flash.c ****   */
  94:src/Libraries/STM32F10x_StdPeriph_Driver/src/stm32f10x_flash.c **** 
  95:src/Libraries/STM32F10x_StdPeriph_Driver/src/stm32f10x_flash.c **** /**
  96:src/Libraries/STM32F10x_StdPeriph_Driver/src/stm32f10x_flash.c ****   * @}
  97:src/Libraries/STM32F10x_StdPeriph_Driver/src/stm32f10x_flash.c ****   */ 
  98:src/Libraries/STM32F10x_StdPeriph_Driver/src/stm32f10x_flash.c **** 
  99:src/Libraries/STM32F10x_StdPeriph_Driver/src/stm32f10x_flash.c **** /** @defgroup FLASH_Private_Variables
 100:src/Libraries/STM32F10x_StdPeriph_Driver/src/stm32f10x_flash.c ****   * @{
 101:src/Libraries/STM32F10x_StdPeriph_Driver/src/stm32f10x_flash.c ****   */
 102:src/Libraries/STM32F10x_StdPeriph_Driver/src/stm32f10x_flash.c **** 
 103:src/Libraries/STM32F10x_StdPeriph_Driver/src/stm32f10x_flash.c **** /**
 104:src/Libraries/STM32F10x_StdPeriph_Driver/src/stm32f10x_flash.c ****   * @}
 105:src/Libraries/STM32F10x_StdPeriph_Driver/src/stm32f10x_flash.c ****   */ 
 106:src/Libraries/STM32F10x_StdPeriph_Driver/src/stm32f10x_flash.c **** 
 107:src/Libraries/STM32F10x_StdPeriph_Driver/src/stm32f10x_flash.c **** /** @defgroup FLASH_Private_FunctionPrototypes
 108:src/Libraries/STM32F10x_StdPeriph_Driver/src/stm32f10x_flash.c ****   * @{
 109:src/Libraries/STM32F10x_StdPeriph_Driver/src/stm32f10x_flash.c ****   */
 110:src/Libraries/STM32F10x_StdPeriph_Driver/src/stm32f10x_flash.c ****   
 111:src/Libraries/STM32F10x_StdPeriph_Driver/src/stm32f10x_flash.c **** /**
 112:src/Libraries/STM32F10x_StdPeriph_Driver/src/stm32f10x_flash.c ****   * @}
 113:src/Libraries/STM32F10x_StdPeriph_Driver/src/stm32f10x_flash.c ****   */
 114:src/Libraries/STM32F10x_StdPeriph_Driver/src/stm32f10x_flash.c **** 
 115:src/Libraries/STM32F10x_StdPeriph_Driver/src/stm32f10x_flash.c **** /** @defgroup FLASH_Private_Functions
 116:src/Libraries/STM32F10x_StdPeriph_Driver/src/stm32f10x_flash.c ****   * @{
 117:src/Libraries/STM32F10x_StdPeriph_Driver/src/stm32f10x_flash.c ****   */
 118:src/Libraries/STM32F10x_StdPeriph_Driver/src/stm32f10x_flash.c **** 
 119:src/Libraries/STM32F10x_StdPeriph_Driver/src/stm32f10x_flash.c **** /**
 120:src/Libraries/STM32F10x_StdPeriph_Driver/src/stm32f10x_flash.c **** @code  
 121:src/Libraries/STM32F10x_StdPeriph_Driver/src/stm32f10x_flash.c ****  
 122:src/Libraries/STM32F10x_StdPeriph_Driver/src/stm32f10x_flash.c ****  This driver provides functions to configure and program the Flash memory of all STM32F10x devices,
 123:src/Libraries/STM32F10x_StdPeriph_Driver/src/stm32f10x_flash.c ****  including the latest STM32F10x_XL density devices. 
 124:src/Libraries/STM32F10x_StdPeriph_Driver/src/stm32f10x_flash.c **** 
 125:src/Libraries/STM32F10x_StdPeriph_Driver/src/stm32f10x_flash.c ****  STM32F10x_XL devices feature up to 1 Mbyte with dual bank architecture for read-while-write (RWW) 
 126:src/Libraries/STM32F10x_StdPeriph_Driver/src/stm32f10x_flash.c ****     - bank1: fixed size of 512 Kbytes (256 pages of 2Kbytes each)
 127:src/Libraries/STM32F10x_StdPeriph_Driver/src/stm32f10x_flash.c ****     - bank2: up to 512 Kbytes (up to 256 pages of 2Kbytes each)
 128:src/Libraries/STM32F10x_StdPeriph_Driver/src/stm32f10x_flash.c ****  While other STM32F10x devices features only one bank with memory up to 512 Kbytes.
 129:src/Libraries/STM32F10x_StdPeriph_Driver/src/stm32f10x_flash.c **** 
 130:src/Libraries/STM32F10x_StdPeriph_Driver/src/stm32f10x_flash.c ****  In version V3.3.0, some functions were updated and new ones were added to support
 131:src/Libraries/STM32F10x_StdPeriph_Driver/src/stm32f10x_flash.c ****  STM32F10x_XL devices. Thus some functions manages all devices, while other are 
 132:src/Libraries/STM32F10x_StdPeriph_Driver/src/stm32f10x_flash.c ****  dedicated for XL devices only.
 133:src/Libraries/STM32F10x_StdPeriph_Driver/src/stm32f10x_flash.c ****  
 134:src/Libraries/STM32F10x_StdPeriph_Driver/src/stm32f10x_flash.c ****  The table below presents the list of available functions depending on the used STM32F10x devices. 
 135:src/Libraries/STM32F10x_StdPeriph_Driver/src/stm32f10x_flash.c ****       
 136:src/Libraries/STM32F10x_StdPeriph_Driver/src/stm32f10x_flash.c ****    ***************************************************
 137:src/Libraries/STM32F10x_StdPeriph_Driver/src/stm32f10x_flash.c ****    * Legacy functions used for all STM32F10x devices *
 138:src/Libraries/STM32F10x_StdPeriph_Driver/src/stm32f10x_flash.c ****    ***************************************************
 139:src/Libraries/STM32F10x_StdPeriph_Driver/src/stm32f10x_flash.c ****    +-----------------------------------------------------------------------------------------------
 140:src/Libraries/STM32F10x_StdPeriph_Driver/src/stm32f10x_flash.c ****    |       Functions prototypes         |STM32F10x_XL|Other STM32F10x|    Comments                 
 141:src/Libraries/STM32F10x_StdPeriph_Driver/src/stm32f10x_flash.c ****    |                                    |   devices  |  devices      |                             
 142:src/Libraries/STM32F10x_StdPeriph_Driver/src/stm32f10x_flash.c ****    |-----------------------------------------------------------------------------------------------
 143:src/Libraries/STM32F10x_StdPeriph_Driver/src/stm32f10x_flash.c ****    |FLASH_SetLatency                    |    Yes     |      Yes      | No change                   
 144:src/Libraries/STM32F10x_StdPeriph_Driver/src/stm32f10x_flash.c ****    |-----------------------------------------------------------------------------------------------
 145:src/Libraries/STM32F10x_StdPeriph_Driver/src/stm32f10x_flash.c ****    |FLASH_HalfCycleAccessCmd            |    Yes     |      Yes      | No change                   
ARM GAS  C:\Users\dell\AppData\Local\Temp\ccqOk9Jh.s 			page 4


 146:src/Libraries/STM32F10x_StdPeriph_Driver/src/stm32f10x_flash.c ****    |-----------------------------------------------------------------------------------------------
 147:src/Libraries/STM32F10x_StdPeriph_Driver/src/stm32f10x_flash.c ****    |FLASH_PrefetchBufferCmd             |    Yes     |      Yes      | No change                   
 148:src/Libraries/STM32F10x_StdPeriph_Driver/src/stm32f10x_flash.c ****    |-----------------------------------------------------------------------------------------------
 149:src/Libraries/STM32F10x_StdPeriph_Driver/src/stm32f10x_flash.c ****    |FLASH_Unlock                        |    Yes     |      Yes      | - For STM32F10X_XL devices: 
 150:src/Libraries/STM32F10x_StdPeriph_Driver/src/stm32f10x_flash.c ****    |                                    |            |               | - For other devices: unlock 
 151:src/Libraries/STM32F10x_StdPeriph_Driver/src/stm32f10x_flash.c ****    |                                    |            |               |   to FLASH_UnlockBank1 funct
 152:src/Libraries/STM32F10x_StdPeriph_Driver/src/stm32f10x_flash.c ****    |-----------------------------------------------------------------------------------------------
 153:src/Libraries/STM32F10x_StdPeriph_Driver/src/stm32f10x_flash.c ****    |FLASH_Lock                          |    Yes     |      Yes      | - For STM32F10X_XL devices: 
 154:src/Libraries/STM32F10x_StdPeriph_Driver/src/stm32f10x_flash.c ****    |                                    |            |               | - For other devices: lock Ba
 155:src/Libraries/STM32F10x_StdPeriph_Driver/src/stm32f10x_flash.c ****    |                                    |            |               |   to FLASH_LockBank1 functio
 156:src/Libraries/STM32F10x_StdPeriph_Driver/src/stm32f10x_flash.c ****    |-----------------------------------------------------------------------------------------------
 157:src/Libraries/STM32F10x_StdPeriph_Driver/src/stm32f10x_flash.c ****    |FLASH_ErasePage                     |    Yes     |      Yes      | - For STM32F10x_XL devices: 
 158:src/Libraries/STM32F10x_StdPeriph_Driver/src/stm32f10x_flash.c ****    |                                    |            |               | - For other devices: erase a
 159:src/Libraries/STM32F10x_StdPeriph_Driver/src/stm32f10x_flash.c ****    |-----------------------------------------------------------------------------------------------
 160:src/Libraries/STM32F10x_StdPeriph_Driver/src/stm32f10x_flash.c ****    |FLASH_EraseAllPages                 |    Yes     |      Yes      | - For STM32F10x_XL devices: 
 161:src/Libraries/STM32F10x_StdPeriph_Driver/src/stm32f10x_flash.c ****    |                                    |            |               | - For other devices: erase a
 162:src/Libraries/STM32F10x_StdPeriph_Driver/src/stm32f10x_flash.c ****    |-----------------------------------------------------------------------------------------------
 163:src/Libraries/STM32F10x_StdPeriph_Driver/src/stm32f10x_flash.c ****    |FLASH_EraseOptionBytes              |    Yes     |      Yes      | No change                   
 164:src/Libraries/STM32F10x_StdPeriph_Driver/src/stm32f10x_flash.c ****    |-----------------------------------------------------------------------------------------------
 165:src/Libraries/STM32F10x_StdPeriph_Driver/src/stm32f10x_flash.c ****    |FLASH_ProgramWord                   |    Yes     |      Yes      | Updated to program up to 1MB
 166:src/Libraries/STM32F10x_StdPeriph_Driver/src/stm32f10x_flash.c ****    |-----------------------------------------------------------------------------------------------
 167:src/Libraries/STM32F10x_StdPeriph_Driver/src/stm32f10x_flash.c ****    |FLASH_ProgramHalfWord               |    Yes     |      Yes      | Updated to program up to 1MB
 168:src/Libraries/STM32F10x_StdPeriph_Driver/src/stm32f10x_flash.c ****    |-----------------------------------------------------------------------------------------------
 169:src/Libraries/STM32F10x_StdPeriph_Driver/src/stm32f10x_flash.c ****    |FLASH_ProgramOptionByteData         |    Yes     |      Yes      | No change                   
 170:src/Libraries/STM32F10x_StdPeriph_Driver/src/stm32f10x_flash.c ****    |-----------------------------------------------------------------------------------------------
 171:src/Libraries/STM32F10x_StdPeriph_Driver/src/stm32f10x_flash.c ****    |FLASH_EnableWriteProtection         |    Yes     |      Yes      | No change                   
 172:src/Libraries/STM32F10x_StdPeriph_Driver/src/stm32f10x_flash.c ****    |-----------------------------------------------------------------------------------------------
 173:src/Libraries/STM32F10x_StdPeriph_Driver/src/stm32f10x_flash.c ****    |FLASH_ReadOutProtection             |    Yes     |      Yes      | No change                   
 174:src/Libraries/STM32F10x_StdPeriph_Driver/src/stm32f10x_flash.c ****    |-----------------------------------------------------------------------------------------------
 175:src/Libraries/STM32F10x_StdPeriph_Driver/src/stm32f10x_flash.c ****    |FLASH_UserOptionByteConfig          |    Yes     |      Yes      | No change                   
 176:src/Libraries/STM32F10x_StdPeriph_Driver/src/stm32f10x_flash.c ****    |-----------------------------------------------------------------------------------------------
 177:src/Libraries/STM32F10x_StdPeriph_Driver/src/stm32f10x_flash.c ****    |FLASH_GetUserOptionByte             |    Yes     |      Yes      | No change                   
 178:src/Libraries/STM32F10x_StdPeriph_Driver/src/stm32f10x_flash.c ****    |-----------------------------------------------------------------------------------------------
 179:src/Libraries/STM32F10x_StdPeriph_Driver/src/stm32f10x_flash.c ****    |FLASH_GetWriteProtectionOptionByte  |    Yes     |      Yes      | No change                   
 180:src/Libraries/STM32F10x_StdPeriph_Driver/src/stm32f10x_flash.c ****    |-----------------------------------------------------------------------------------------------
 181:src/Libraries/STM32F10x_StdPeriph_Driver/src/stm32f10x_flash.c ****    |FLASH_GetReadOutProtectionStatus    |    Yes     |      Yes      | No change                   
 182:src/Libraries/STM32F10x_StdPeriph_Driver/src/stm32f10x_flash.c ****    |-----------------------------------------------------------------------------------------------
 183:src/Libraries/STM32F10x_StdPeriph_Driver/src/stm32f10x_flash.c ****    |FLASH_GetPrefetchBufferStatus       |    Yes     |      Yes      | No change                   
 184:src/Libraries/STM32F10x_StdPeriph_Driver/src/stm32f10x_flash.c ****    |-----------------------------------------------------------------------------------------------
 185:src/Libraries/STM32F10x_StdPeriph_Driver/src/stm32f10x_flash.c ****    |FLASH_ITConfig                      |    Yes     |      Yes      | - For STM32F10x_XL devices: 
 186:src/Libraries/STM32F10x_StdPeriph_Driver/src/stm32f10x_flash.c ****    |                                    |            |               | - For other devices: enable 
 187:src/Libraries/STM32F10x_StdPeriph_Driver/src/stm32f10x_flash.c ****    |-----------------------------------------------------------------------------------------------
 188:src/Libraries/STM32F10x_StdPeriph_Driver/src/stm32f10x_flash.c ****    |FLASH_GetFlagStatus                 |    Yes     |      Yes      | - For STM32F10x_XL devices: 
 189:src/Libraries/STM32F10x_StdPeriph_Driver/src/stm32f10x_flash.c ****    |                                    |            |               | - For other devices: return 
 190:src/Libraries/STM32F10x_StdPeriph_Driver/src/stm32f10x_flash.c ****    |-----------------------------------------------------------------------------------------------
 191:src/Libraries/STM32F10x_StdPeriph_Driver/src/stm32f10x_flash.c ****    |FLASH_ClearFlag                     |    Yes     |      Yes      | - For STM32F10x_XL devices: 
 192:src/Libraries/STM32F10x_StdPeriph_Driver/src/stm32f10x_flash.c ****    |                                    |            |               | - For other devices: clear B
 193:src/Libraries/STM32F10x_StdPeriph_Driver/src/stm32f10x_flash.c ****    |-----------------------------------------------------------------------------------------------
 194:src/Libraries/STM32F10x_StdPeriph_Driver/src/stm32f10x_flash.c ****    |FLASH_GetStatus                     |    Yes     |      Yes      | - Return the status of Bank1
 195:src/Libraries/STM32F10x_StdPeriph_Driver/src/stm32f10x_flash.c ****    |                                    |            |               |   equivalent to FLASH_GetBan
 196:src/Libraries/STM32F10x_StdPeriph_Driver/src/stm32f10x_flash.c ****    |-----------------------------------------------------------------------------------------------
 197:src/Libraries/STM32F10x_StdPeriph_Driver/src/stm32f10x_flash.c ****    |FLASH_WaitForLastOperation          |    Yes     |      Yes      | - Wait for Bank1 last operat
 198:src/Libraries/STM32F10x_StdPeriph_Driver/src/stm32f10x_flash.c ****    |                                    |            |               |   equivalent to: FLASH_WaitF
 199:src/Libraries/STM32F10x_StdPeriph_Driver/src/stm32f10x_flash.c ****    +-----------------------------------------------------------------------------------------------
 200:src/Libraries/STM32F10x_StdPeriph_Driver/src/stm32f10x_flash.c **** 
 201:src/Libraries/STM32F10x_StdPeriph_Driver/src/stm32f10x_flash.c ****    ************************************************************************************************
 202:src/Libraries/STM32F10x_StdPeriph_Driver/src/stm32f10x_flash.c ****    * New functions used for all STM32F10x devices to manage Bank1:                                 
ARM GAS  C:\Users\dell\AppData\Local\Temp\ccqOk9Jh.s 			page 5


 203:src/Libraries/STM32F10x_StdPeriph_Driver/src/stm32f10x_flash.c ****    *   - These functions are mainly useful for STM32F10x_XL density devices, to have separate contr
 204:src/Libraries/STM32F10x_StdPeriph_Driver/src/stm32f10x_flash.c ****    *   - For other devices, these functions are optional (covered by functions listed above)       
 205:src/Libraries/STM32F10x_StdPeriph_Driver/src/stm32f10x_flash.c ****    ************************************************************************************************
 206:src/Libraries/STM32F10x_StdPeriph_Driver/src/stm32f10x_flash.c ****    +-----------------------------------------------------------------------------------------------
 207:src/Libraries/STM32F10x_StdPeriph_Driver/src/stm32f10x_flash.c ****    |       Functions prototypes         |STM32F10x_XL|Other STM32F10x|    Comments                 
 208:src/Libraries/STM32F10x_StdPeriph_Driver/src/stm32f10x_flash.c ****    |                                    |   devices  |  devices      |                             
 209:src/Libraries/STM32F10x_StdPeriph_Driver/src/stm32f10x_flash.c ****    |-----------------------------------------------------------------------------------------------
 210:src/Libraries/STM32F10x_StdPeriph_Driver/src/stm32f10x_flash.c ****    | FLASH_UnlockBank1                  |    Yes     |      Yes      | - Unlock Bank1              
 211:src/Libraries/STM32F10x_StdPeriph_Driver/src/stm32f10x_flash.c ****    |-----------------------------------------------------------------------------------------------
 212:src/Libraries/STM32F10x_StdPeriph_Driver/src/stm32f10x_flash.c ****    |FLASH_LockBank1                     |    Yes     |      Yes      | - Lock Bank1                
 213:src/Libraries/STM32F10x_StdPeriph_Driver/src/stm32f10x_flash.c ****    |-----------------------------------------------------------------------------------------------
 214:src/Libraries/STM32F10x_StdPeriph_Driver/src/stm32f10x_flash.c ****    | FLASH_EraseAllBank1Pages           |    Yes     |      Yes      | - Erase all pages in Bank1  
 215:src/Libraries/STM32F10x_StdPeriph_Driver/src/stm32f10x_flash.c ****    |-----------------------------------------------------------------------------------------------
 216:src/Libraries/STM32F10x_StdPeriph_Driver/src/stm32f10x_flash.c ****    | FLASH_GetBank1Status               |    Yes     |      Yes      | - Return the status of Bank1
 217:src/Libraries/STM32F10x_StdPeriph_Driver/src/stm32f10x_flash.c ****    |-----------------------------------------------------------------------------------------------
 218:src/Libraries/STM32F10x_StdPeriph_Driver/src/stm32f10x_flash.c ****    | FLASH_WaitForLastBank1Operation    |    Yes     |      Yes      | - Wait for Bank1 last operat
 219:src/Libraries/STM32F10x_StdPeriph_Driver/src/stm32f10x_flash.c ****    +-----------------------------------------------------------------------------------------------
 220:src/Libraries/STM32F10x_StdPeriph_Driver/src/stm32f10x_flash.c **** 
 221:src/Libraries/STM32F10x_StdPeriph_Driver/src/stm32f10x_flash.c ****    *****************************************************************************
 222:src/Libraries/STM32F10x_StdPeriph_Driver/src/stm32f10x_flash.c ****    * New Functions used only with STM32F10x_XL density devices to manage Bank2 *
 223:src/Libraries/STM32F10x_StdPeriph_Driver/src/stm32f10x_flash.c ****    *****************************************************************************
 224:src/Libraries/STM32F10x_StdPeriph_Driver/src/stm32f10x_flash.c ****    +-----------------------------------------------------------------------------------------------
 225:src/Libraries/STM32F10x_StdPeriph_Driver/src/stm32f10x_flash.c ****    |       Functions prototypes         |STM32F10x_XL|Other STM32F10x|    Comments                 
 226:src/Libraries/STM32F10x_StdPeriph_Driver/src/stm32f10x_flash.c ****    |                                    |   devices  |  devices      |                             
 227:src/Libraries/STM32F10x_StdPeriph_Driver/src/stm32f10x_flash.c ****    |-----------------------------------------------------------------------------------------------
 228:src/Libraries/STM32F10x_StdPeriph_Driver/src/stm32f10x_flash.c ****    | FLASH_UnlockBank2                  |    Yes     |      No       | - Unlock Bank2              
 229:src/Libraries/STM32F10x_StdPeriph_Driver/src/stm32f10x_flash.c ****    |-----------------------------------------------------------------------------------------------
 230:src/Libraries/STM32F10x_StdPeriph_Driver/src/stm32f10x_flash.c ****    |FLASH_LockBank2                     |    Yes     |      No       | - Lock Bank2                
 231:src/Libraries/STM32F10x_StdPeriph_Driver/src/stm32f10x_flash.c ****    |-----------------------------------------------------------------------------------------------
 232:src/Libraries/STM32F10x_StdPeriph_Driver/src/stm32f10x_flash.c ****    | FLASH_EraseAllBank2Pages           |    Yes     |      No       | - Erase all pages in Bank2  
 233:src/Libraries/STM32F10x_StdPeriph_Driver/src/stm32f10x_flash.c ****    |-----------------------------------------------------------------------------------------------
 234:src/Libraries/STM32F10x_StdPeriph_Driver/src/stm32f10x_flash.c ****    | FLASH_GetBank2Status               |    Yes     |      No       | - Return the status of Bank2
 235:src/Libraries/STM32F10x_StdPeriph_Driver/src/stm32f10x_flash.c ****    |-----------------------------------------------------------------------------------------------
 236:src/Libraries/STM32F10x_StdPeriph_Driver/src/stm32f10x_flash.c ****    | FLASH_WaitForLastBank2Operation    |    Yes     |      No       | - Wait for Bank2 last operat
 237:src/Libraries/STM32F10x_StdPeriph_Driver/src/stm32f10x_flash.c ****    |-----------------------------------------------------------------------------------------------
 238:src/Libraries/STM32F10x_StdPeriph_Driver/src/stm32f10x_flash.c ****    | FLASH_BootConfig                   |    Yes     |      No       | - Configure to boot from Ban
 239:src/Libraries/STM32F10x_StdPeriph_Driver/src/stm32f10x_flash.c ****    +-----------------------------------------------------------------------------------------------
 240:src/Libraries/STM32F10x_StdPeriph_Driver/src/stm32f10x_flash.c **** @endcode
 241:src/Libraries/STM32F10x_StdPeriph_Driver/src/stm32f10x_flash.c **** */
 242:src/Libraries/STM32F10x_StdPeriph_Driver/src/stm32f10x_flash.c **** 
 243:src/Libraries/STM32F10x_StdPeriph_Driver/src/stm32f10x_flash.c **** 
 244:src/Libraries/STM32F10x_StdPeriph_Driver/src/stm32f10x_flash.c **** /**
 245:src/Libraries/STM32F10x_StdPeriph_Driver/src/stm32f10x_flash.c ****   * @brief  Sets the code latency value.
 246:src/Libraries/STM32F10x_StdPeriph_Driver/src/stm32f10x_flash.c ****   * @note   This function can be used for all STM32F10x devices.
 247:src/Libraries/STM32F10x_StdPeriph_Driver/src/stm32f10x_flash.c ****   * @param  FLASH_Latency: specifies the FLASH Latency value.
 248:src/Libraries/STM32F10x_StdPeriph_Driver/src/stm32f10x_flash.c ****   *   This parameter can be one of the following values:
 249:src/Libraries/STM32F10x_StdPeriph_Driver/src/stm32f10x_flash.c ****   *     @arg FLASH_Latency_0: FLASH Zero Latency cycle
 250:src/Libraries/STM32F10x_StdPeriph_Driver/src/stm32f10x_flash.c ****   *     @arg FLASH_Latency_1: FLASH One Latency cycle
 251:src/Libraries/STM32F10x_StdPeriph_Driver/src/stm32f10x_flash.c ****   *     @arg FLASH_Latency_2: FLASH Two Latency cycles
 252:src/Libraries/STM32F10x_StdPeriph_Driver/src/stm32f10x_flash.c ****   * @retval None
 253:src/Libraries/STM32F10x_StdPeriph_Driver/src/stm32f10x_flash.c ****   */
 254:src/Libraries/STM32F10x_StdPeriph_Driver/src/stm32f10x_flash.c **** void FLASH_SetLatency(uint32_t FLASH_Latency)
 255:src/Libraries/STM32F10x_StdPeriph_Driver/src/stm32f10x_flash.c **** {
  28              		.loc 1 255 1 view -0
  29              		.cfi_startproc
  30              		@ args = 0, pretend = 0, frame = 0
  31              		@ frame_needed = 0, uses_anonymous_args = 0
ARM GAS  C:\Users\dell\AppData\Local\Temp\ccqOk9Jh.s 			page 6


  32              		@ link register save eliminated.
 256:src/Libraries/STM32F10x_StdPeriph_Driver/src/stm32f10x_flash.c ****   uint32_t tmpreg = 0;
  33              		.loc 1 256 3 view .LVU1
 257:src/Libraries/STM32F10x_StdPeriph_Driver/src/stm32f10x_flash.c ****   
 258:src/Libraries/STM32F10x_StdPeriph_Driver/src/stm32f10x_flash.c ****   /* Check the parameters */
 259:src/Libraries/STM32F10x_StdPeriph_Driver/src/stm32f10x_flash.c ****   assert_param(IS_FLASH_LATENCY(FLASH_Latency));
  34              		.loc 1 259 3 view .LVU2
 260:src/Libraries/STM32F10x_StdPeriph_Driver/src/stm32f10x_flash.c ****   
 261:src/Libraries/STM32F10x_StdPeriph_Driver/src/stm32f10x_flash.c ****   /* Read the ACR register */
 262:src/Libraries/STM32F10x_StdPeriph_Driver/src/stm32f10x_flash.c ****   tmpreg = FLASH->ACR;  
  35              		.loc 1 262 3 view .LVU3
  36              		.loc 1 262 10 is_stmt 0 view .LVU4
  37 0000 034A     		ldr	r2, .L2
  38 0002 1368     		ldr	r3, [r2]
  39              	.LVL1:
 263:src/Libraries/STM32F10x_StdPeriph_Driver/src/stm32f10x_flash.c ****   
 264:src/Libraries/STM32F10x_StdPeriph_Driver/src/stm32f10x_flash.c ****   /* Sets the Latency value */
 265:src/Libraries/STM32F10x_StdPeriph_Driver/src/stm32f10x_flash.c ****   tmpreg &= ACR_LATENCY_Mask;
  40              		.loc 1 265 3 is_stmt 1 view .LVU5
  41              		.loc 1 265 10 is_stmt 0 view .LVU6
  42 0004 03F03803 		and	r3, r3, #56
  43              	.LVL2:
 266:src/Libraries/STM32F10x_StdPeriph_Driver/src/stm32f10x_flash.c ****   tmpreg |= FLASH_Latency;
  44              		.loc 1 266 3 is_stmt 1 view .LVU7
  45              		.loc 1 266 10 is_stmt 0 view .LVU8
  46 0008 0343     		orrs	r3, r3, r0
  47              	.LVL3:
 267:src/Libraries/STM32F10x_StdPeriph_Driver/src/stm32f10x_flash.c ****   
 268:src/Libraries/STM32F10x_StdPeriph_Driver/src/stm32f10x_flash.c ****   /* Write the ACR register */
 269:src/Libraries/STM32F10x_StdPeriph_Driver/src/stm32f10x_flash.c ****   FLASH->ACR = tmpreg;
  48              		.loc 1 269 3 is_stmt 1 view .LVU9
  49              		.loc 1 269 14 is_stmt 0 view .LVU10
  50 000a 1360     		str	r3, [r2]
 270:src/Libraries/STM32F10x_StdPeriph_Driver/src/stm32f10x_flash.c **** }
  51              		.loc 1 270 1 view .LVU11
  52 000c 7047     		bx	lr
  53              	.L3:
  54 000e 00BF     		.align	2
  55              	.L2:
  56 0010 00200240 		.word	1073881088
  57              		.cfi_endproc
  58              	.LFE29:
  60              		.section	.text.FLASH_HalfCycleAccessCmd,"ax",%progbits
  61              		.align	1
  62              		.global	FLASH_HalfCycleAccessCmd
  63              		.syntax unified
  64              		.thumb
  65              		.thumb_func
  66              		.fpu softvfp
  68              	FLASH_HalfCycleAccessCmd:
  69              	.LVL4:
  70              	.LFB30:
 271:src/Libraries/STM32F10x_StdPeriph_Driver/src/stm32f10x_flash.c **** 
 272:src/Libraries/STM32F10x_StdPeriph_Driver/src/stm32f10x_flash.c **** /**
 273:src/Libraries/STM32F10x_StdPeriph_Driver/src/stm32f10x_flash.c ****   * @brief  Enables or disables the Half cycle flash access.
 274:src/Libraries/STM32F10x_StdPeriph_Driver/src/stm32f10x_flash.c ****   * @note   This function can be used for all STM32F10x devices.
 275:src/Libraries/STM32F10x_StdPeriph_Driver/src/stm32f10x_flash.c ****   * @param  FLASH_HalfCycleAccess: specifies the FLASH Half cycle Access mode.
ARM GAS  C:\Users\dell\AppData\Local\Temp\ccqOk9Jh.s 			page 7


 276:src/Libraries/STM32F10x_StdPeriph_Driver/src/stm32f10x_flash.c ****   *   This parameter can be one of the following values:
 277:src/Libraries/STM32F10x_StdPeriph_Driver/src/stm32f10x_flash.c ****   *     @arg FLASH_HalfCycleAccess_Enable: FLASH Half Cycle Enable
 278:src/Libraries/STM32F10x_StdPeriph_Driver/src/stm32f10x_flash.c ****   *     @arg FLASH_HalfCycleAccess_Disable: FLASH Half Cycle Disable
 279:src/Libraries/STM32F10x_StdPeriph_Driver/src/stm32f10x_flash.c ****   * @retval None
 280:src/Libraries/STM32F10x_StdPeriph_Driver/src/stm32f10x_flash.c ****   */
 281:src/Libraries/STM32F10x_StdPeriph_Driver/src/stm32f10x_flash.c **** void FLASH_HalfCycleAccessCmd(uint32_t FLASH_HalfCycleAccess)
 282:src/Libraries/STM32F10x_StdPeriph_Driver/src/stm32f10x_flash.c **** {
  71              		.loc 1 282 1 is_stmt 1 view -0
  72              		.cfi_startproc
  73              		@ args = 0, pretend = 0, frame = 0
  74              		@ frame_needed = 0, uses_anonymous_args = 0
  75              		@ link register save eliminated.
 283:src/Libraries/STM32F10x_StdPeriph_Driver/src/stm32f10x_flash.c ****   /* Check the parameters */
 284:src/Libraries/STM32F10x_StdPeriph_Driver/src/stm32f10x_flash.c ****   assert_param(IS_FLASH_HALFCYCLEACCESS_STATE(FLASH_HalfCycleAccess));
  76              		.loc 1 284 3 view .LVU13
 285:src/Libraries/STM32F10x_StdPeriph_Driver/src/stm32f10x_flash.c ****   
 286:src/Libraries/STM32F10x_StdPeriph_Driver/src/stm32f10x_flash.c ****   /* Enable or disable the Half cycle access */
 287:src/Libraries/STM32F10x_StdPeriph_Driver/src/stm32f10x_flash.c ****   FLASH->ACR &= ACR_HLFCYA_Mask;
  77              		.loc 1 287 3 view .LVU14
  78              		.loc 1 287 14 is_stmt 0 view .LVU15
  79 0000 044B     		ldr	r3, .L5
  80 0002 1968     		ldr	r1, [r3]
  81 0004 21F00801 		bic	r1, r1, #8
  82 0008 1960     		str	r1, [r3]
 288:src/Libraries/STM32F10x_StdPeriph_Driver/src/stm32f10x_flash.c ****   FLASH->ACR |= FLASH_HalfCycleAccess;
  83              		.loc 1 288 3 is_stmt 1 view .LVU16
  84              		.loc 1 288 14 is_stmt 0 view .LVU17
  85 000a 1A68     		ldr	r2, [r3]
  86 000c 0243     		orrs	r2, r2, r0
  87 000e 1A60     		str	r2, [r3]
 289:src/Libraries/STM32F10x_StdPeriph_Driver/src/stm32f10x_flash.c **** }
  88              		.loc 1 289 1 view .LVU18
  89 0010 7047     		bx	lr
  90              	.L6:
  91 0012 00BF     		.align	2
  92              	.L5:
  93 0014 00200240 		.word	1073881088
  94              		.cfi_endproc
  95              	.LFE30:
  97              		.section	.text.FLASH_PrefetchBufferCmd,"ax",%progbits
  98              		.align	1
  99              		.global	FLASH_PrefetchBufferCmd
 100              		.syntax unified
 101              		.thumb
 102              		.thumb_func
 103              		.fpu softvfp
 105              	FLASH_PrefetchBufferCmd:
 106              	.LVL5:
 107              	.LFB31:
 290:src/Libraries/STM32F10x_StdPeriph_Driver/src/stm32f10x_flash.c **** 
 291:src/Libraries/STM32F10x_StdPeriph_Driver/src/stm32f10x_flash.c **** /**
 292:src/Libraries/STM32F10x_StdPeriph_Driver/src/stm32f10x_flash.c ****   * @brief  Enables or disables the Prefetch Buffer.
 293:src/Libraries/STM32F10x_StdPeriph_Driver/src/stm32f10x_flash.c ****   * @note   This function can be used for all STM32F10x devices.
 294:src/Libraries/STM32F10x_StdPeriph_Driver/src/stm32f10x_flash.c ****   * @param  FLASH_PrefetchBuffer: specifies the Prefetch buffer status.
 295:src/Libraries/STM32F10x_StdPeriph_Driver/src/stm32f10x_flash.c ****   *   This parameter can be one of the following values:
 296:src/Libraries/STM32F10x_StdPeriph_Driver/src/stm32f10x_flash.c ****   *     @arg FLASH_PrefetchBuffer_Enable: FLASH Prefetch Buffer Enable
 297:src/Libraries/STM32F10x_StdPeriph_Driver/src/stm32f10x_flash.c ****   *     @arg FLASH_PrefetchBuffer_Disable: FLASH Prefetch Buffer Disable
ARM GAS  C:\Users\dell\AppData\Local\Temp\ccqOk9Jh.s 			page 8


 298:src/Libraries/STM32F10x_StdPeriph_Driver/src/stm32f10x_flash.c ****   * @retval None
 299:src/Libraries/STM32F10x_StdPeriph_Driver/src/stm32f10x_flash.c ****   */
 300:src/Libraries/STM32F10x_StdPeriph_Driver/src/stm32f10x_flash.c **** void FLASH_PrefetchBufferCmd(uint32_t FLASH_PrefetchBuffer)
 301:src/Libraries/STM32F10x_StdPeriph_Driver/src/stm32f10x_flash.c **** {
 108              		.loc 1 301 1 is_stmt 1 view -0
 109              		.cfi_startproc
 110              		@ args = 0, pretend = 0, frame = 0
 111              		@ frame_needed = 0, uses_anonymous_args = 0
 112              		@ link register save eliminated.
 302:src/Libraries/STM32F10x_StdPeriph_Driver/src/stm32f10x_flash.c ****   /* Check the parameters */
 303:src/Libraries/STM32F10x_StdPeriph_Driver/src/stm32f10x_flash.c ****   assert_param(IS_FLASH_PREFETCHBUFFER_STATE(FLASH_PrefetchBuffer));
 113              		.loc 1 303 3 view .LVU20
 304:src/Libraries/STM32F10x_StdPeriph_Driver/src/stm32f10x_flash.c ****   
 305:src/Libraries/STM32F10x_StdPeriph_Driver/src/stm32f10x_flash.c ****   /* Enable or disable the Prefetch Buffer */
 306:src/Libraries/STM32F10x_StdPeriph_Driver/src/stm32f10x_flash.c ****   FLASH->ACR &= ACR_PRFTBE_Mask;
 114              		.loc 1 306 3 view .LVU21
 115              		.loc 1 306 14 is_stmt 0 view .LVU22
 116 0000 044B     		ldr	r3, .L8
 117 0002 1968     		ldr	r1, [r3]
 118 0004 21F01001 		bic	r1, r1, #16
 119 0008 1960     		str	r1, [r3]
 307:src/Libraries/STM32F10x_StdPeriph_Driver/src/stm32f10x_flash.c ****   FLASH->ACR |= FLASH_PrefetchBuffer;
 120              		.loc 1 307 3 is_stmt 1 view .LVU23
 121              		.loc 1 307 14 is_stmt 0 view .LVU24
 122 000a 1A68     		ldr	r2, [r3]
 123 000c 0243     		orrs	r2, r2, r0
 124 000e 1A60     		str	r2, [r3]
 308:src/Libraries/STM32F10x_StdPeriph_Driver/src/stm32f10x_flash.c **** }
 125              		.loc 1 308 1 view .LVU25
 126 0010 7047     		bx	lr
 127              	.L9:
 128 0012 00BF     		.align	2
 129              	.L8:
 130 0014 00200240 		.word	1073881088
 131              		.cfi_endproc
 132              	.LFE31:
 134              		.section	.text.FLASH_Unlock,"ax",%progbits
 135              		.align	1
 136              		.global	FLASH_Unlock
 137              		.syntax unified
 138              		.thumb
 139              		.thumb_func
 140              		.fpu softvfp
 142              	FLASH_Unlock:
 143              	.LFB32:
 309:src/Libraries/STM32F10x_StdPeriph_Driver/src/stm32f10x_flash.c **** 
 310:src/Libraries/STM32F10x_StdPeriph_Driver/src/stm32f10x_flash.c **** /**
 311:src/Libraries/STM32F10x_StdPeriph_Driver/src/stm32f10x_flash.c ****   * @brief  Unlocks the FLASH Program Erase Controller.
 312:src/Libraries/STM32F10x_StdPeriph_Driver/src/stm32f10x_flash.c ****   * @note   This function can be used for all STM32F10x devices.
 313:src/Libraries/STM32F10x_StdPeriph_Driver/src/stm32f10x_flash.c ****   *         - For STM32F10X_XL devices this function unlocks Bank1 and Bank2.
 314:src/Libraries/STM32F10x_StdPeriph_Driver/src/stm32f10x_flash.c ****   *         - For all other devices it unlocks Bank1 and it is equivalent 
 315:src/Libraries/STM32F10x_StdPeriph_Driver/src/stm32f10x_flash.c ****   *           to FLASH_UnlockBank1 function.. 
 316:src/Libraries/STM32F10x_StdPeriph_Driver/src/stm32f10x_flash.c ****   * @param  None
 317:src/Libraries/STM32F10x_StdPeriph_Driver/src/stm32f10x_flash.c ****   * @retval None
 318:src/Libraries/STM32F10x_StdPeriph_Driver/src/stm32f10x_flash.c ****   */
 319:src/Libraries/STM32F10x_StdPeriph_Driver/src/stm32f10x_flash.c **** void FLASH_Unlock(void)
 320:src/Libraries/STM32F10x_StdPeriph_Driver/src/stm32f10x_flash.c **** {
ARM GAS  C:\Users\dell\AppData\Local\Temp\ccqOk9Jh.s 			page 9


 144              		.loc 1 320 1 is_stmt 1 view -0
 145              		.cfi_startproc
 146              		@ args = 0, pretend = 0, frame = 0
 147              		@ frame_needed = 0, uses_anonymous_args = 0
 148              		@ link register save eliminated.
 321:src/Libraries/STM32F10x_StdPeriph_Driver/src/stm32f10x_flash.c ****   /* Authorize the FPEC of Bank1 Access */
 322:src/Libraries/STM32F10x_StdPeriph_Driver/src/stm32f10x_flash.c ****   FLASH->KEYR = FLASH_KEY1;
 149              		.loc 1 322 3 view .LVU27
 150              		.loc 1 322 15 is_stmt 0 view .LVU28
 151 0000 034B     		ldr	r3, .L11
 152 0002 044A     		ldr	r2, .L11+4
 153 0004 5A60     		str	r2, [r3, #4]
 323:src/Libraries/STM32F10x_StdPeriph_Driver/src/stm32f10x_flash.c ****   FLASH->KEYR = FLASH_KEY2;
 154              		.loc 1 323 3 is_stmt 1 view .LVU29
 155              		.loc 1 323 15 is_stmt 0 view .LVU30
 156 0006 02F18832 		add	r2, r2, #-2004318072
 157 000a 5A60     		str	r2, [r3, #4]
 324:src/Libraries/STM32F10x_StdPeriph_Driver/src/stm32f10x_flash.c **** 
 325:src/Libraries/STM32F10x_StdPeriph_Driver/src/stm32f10x_flash.c **** #ifdef STM32F10X_XL
 326:src/Libraries/STM32F10x_StdPeriph_Driver/src/stm32f10x_flash.c ****   /* Authorize the FPEC of Bank2 Access */
 327:src/Libraries/STM32F10x_StdPeriph_Driver/src/stm32f10x_flash.c ****   FLASH->KEYR2 = FLASH_KEY1;
 328:src/Libraries/STM32F10x_StdPeriph_Driver/src/stm32f10x_flash.c ****   FLASH->KEYR2 = FLASH_KEY2;
 329:src/Libraries/STM32F10x_StdPeriph_Driver/src/stm32f10x_flash.c **** #endif /* STM32F10X_XL */
 330:src/Libraries/STM32F10x_StdPeriph_Driver/src/stm32f10x_flash.c **** }
 158              		.loc 1 330 1 view .LVU31
 159 000c 7047     		bx	lr
 160              	.L12:
 161 000e 00BF     		.align	2
 162              	.L11:
 163 0010 00200240 		.word	1073881088
 164 0014 23016745 		.word	1164378403
 165              		.cfi_endproc
 166              	.LFE32:
 168              		.section	.text.FLASH_UnlockBank1,"ax",%progbits
 169              		.align	1
 170              		.global	FLASH_UnlockBank1
 171              		.syntax unified
 172              		.thumb
 173              		.thumb_func
 174              		.fpu softvfp
 176              	FLASH_UnlockBank1:
 177              	.LFB33:
 331:src/Libraries/STM32F10x_StdPeriph_Driver/src/stm32f10x_flash.c **** /**
 332:src/Libraries/STM32F10x_StdPeriph_Driver/src/stm32f10x_flash.c ****   * @brief  Unlocks the FLASH Bank1 Program Erase Controller.
 333:src/Libraries/STM32F10x_StdPeriph_Driver/src/stm32f10x_flash.c ****   * @note   This function can be used for all STM32F10x devices.
 334:src/Libraries/STM32F10x_StdPeriph_Driver/src/stm32f10x_flash.c ****   *         - For STM32F10X_XL devices this function unlocks Bank1.
 335:src/Libraries/STM32F10x_StdPeriph_Driver/src/stm32f10x_flash.c ****   *         - For all other devices it unlocks Bank1 and it is 
 336:src/Libraries/STM32F10x_StdPeriph_Driver/src/stm32f10x_flash.c ****   *           equivalent to FLASH_Unlock function.
 337:src/Libraries/STM32F10x_StdPeriph_Driver/src/stm32f10x_flash.c ****   * @param  None
 338:src/Libraries/STM32F10x_StdPeriph_Driver/src/stm32f10x_flash.c ****   * @retval None
 339:src/Libraries/STM32F10x_StdPeriph_Driver/src/stm32f10x_flash.c ****   */
 340:src/Libraries/STM32F10x_StdPeriph_Driver/src/stm32f10x_flash.c **** void FLASH_UnlockBank1(void)
 341:src/Libraries/STM32F10x_StdPeriph_Driver/src/stm32f10x_flash.c **** {
 178              		.loc 1 341 1 is_stmt 1 view -0
 179              		.cfi_startproc
 180              		@ args = 0, pretend = 0, frame = 0
 181              		@ frame_needed = 0, uses_anonymous_args = 0
ARM GAS  C:\Users\dell\AppData\Local\Temp\ccqOk9Jh.s 			page 10


 182              		@ link register save eliminated.
 342:src/Libraries/STM32F10x_StdPeriph_Driver/src/stm32f10x_flash.c ****   /* Authorize the FPEC of Bank1 Access */
 343:src/Libraries/STM32F10x_StdPeriph_Driver/src/stm32f10x_flash.c ****   FLASH->KEYR = FLASH_KEY1;
 183              		.loc 1 343 3 view .LVU33
 184              		.loc 1 343 15 is_stmt 0 view .LVU34
 185 0000 034B     		ldr	r3, .L14
 186 0002 044A     		ldr	r2, .L14+4
 187 0004 5A60     		str	r2, [r3, #4]
 344:src/Libraries/STM32F10x_StdPeriph_Driver/src/stm32f10x_flash.c ****   FLASH->KEYR = FLASH_KEY2;
 188              		.loc 1 344 3 is_stmt 1 view .LVU35
 189              		.loc 1 344 15 is_stmt 0 view .LVU36
 190 0006 02F18832 		add	r2, r2, #-2004318072
 191 000a 5A60     		str	r2, [r3, #4]
 345:src/Libraries/STM32F10x_StdPeriph_Driver/src/stm32f10x_flash.c **** }
 192              		.loc 1 345 1 view .LVU37
 193 000c 7047     		bx	lr
 194              	.L15:
 195 000e 00BF     		.align	2
 196              	.L14:
 197 0010 00200240 		.word	1073881088
 198 0014 23016745 		.word	1164378403
 199              		.cfi_endproc
 200              	.LFE33:
 202              		.section	.text.FLASH_Lock,"ax",%progbits
 203              		.align	1
 204              		.global	FLASH_Lock
 205              		.syntax unified
 206              		.thumb
 207              		.thumb_func
 208              		.fpu softvfp
 210              	FLASH_Lock:
 211              	.LFB34:
 346:src/Libraries/STM32F10x_StdPeriph_Driver/src/stm32f10x_flash.c **** 
 347:src/Libraries/STM32F10x_StdPeriph_Driver/src/stm32f10x_flash.c **** #ifdef STM32F10X_XL
 348:src/Libraries/STM32F10x_StdPeriph_Driver/src/stm32f10x_flash.c **** /**
 349:src/Libraries/STM32F10x_StdPeriph_Driver/src/stm32f10x_flash.c ****   * @brief  Unlocks the FLASH Bank2 Program Erase Controller.
 350:src/Libraries/STM32F10x_StdPeriph_Driver/src/stm32f10x_flash.c ****   * @note   This function can be used only for STM32F10X_XL density devices.
 351:src/Libraries/STM32F10x_StdPeriph_Driver/src/stm32f10x_flash.c ****   * @param  None
 352:src/Libraries/STM32F10x_StdPeriph_Driver/src/stm32f10x_flash.c ****   * @retval None
 353:src/Libraries/STM32F10x_StdPeriph_Driver/src/stm32f10x_flash.c ****   */
 354:src/Libraries/STM32F10x_StdPeriph_Driver/src/stm32f10x_flash.c **** void FLASH_UnlockBank2(void)
 355:src/Libraries/STM32F10x_StdPeriph_Driver/src/stm32f10x_flash.c **** {
 356:src/Libraries/STM32F10x_StdPeriph_Driver/src/stm32f10x_flash.c ****   /* Authorize the FPEC of Bank2 Access */
 357:src/Libraries/STM32F10x_StdPeriph_Driver/src/stm32f10x_flash.c ****   FLASH->KEYR2 = FLASH_KEY1;
 358:src/Libraries/STM32F10x_StdPeriph_Driver/src/stm32f10x_flash.c ****   FLASH->KEYR2 = FLASH_KEY2;
 359:src/Libraries/STM32F10x_StdPeriph_Driver/src/stm32f10x_flash.c **** 
 360:src/Libraries/STM32F10x_StdPeriph_Driver/src/stm32f10x_flash.c **** }
 361:src/Libraries/STM32F10x_StdPeriph_Driver/src/stm32f10x_flash.c **** #endif /* STM32F10X_XL */
 362:src/Libraries/STM32F10x_StdPeriph_Driver/src/stm32f10x_flash.c **** 
 363:src/Libraries/STM32F10x_StdPeriph_Driver/src/stm32f10x_flash.c **** /**
 364:src/Libraries/STM32F10x_StdPeriph_Driver/src/stm32f10x_flash.c ****   * @brief  Locks the FLASH Program Erase Controller.
 365:src/Libraries/STM32F10x_StdPeriph_Driver/src/stm32f10x_flash.c ****   * @note   This function can be used for all STM32F10x devices.
 366:src/Libraries/STM32F10x_StdPeriph_Driver/src/stm32f10x_flash.c ****   *         - For STM32F10X_XL devices this function Locks Bank1 and Bank2.
 367:src/Libraries/STM32F10x_StdPeriph_Driver/src/stm32f10x_flash.c ****   *         - For all other devices it Locks Bank1 and it is equivalent 
 368:src/Libraries/STM32F10x_StdPeriph_Driver/src/stm32f10x_flash.c ****   *           to FLASH_LockBank1 function.
 369:src/Libraries/STM32F10x_StdPeriph_Driver/src/stm32f10x_flash.c ****   * @param  None
 370:src/Libraries/STM32F10x_StdPeriph_Driver/src/stm32f10x_flash.c ****   * @retval None
ARM GAS  C:\Users\dell\AppData\Local\Temp\ccqOk9Jh.s 			page 11


 371:src/Libraries/STM32F10x_StdPeriph_Driver/src/stm32f10x_flash.c ****   */
 372:src/Libraries/STM32F10x_StdPeriph_Driver/src/stm32f10x_flash.c **** void FLASH_Lock(void)
 373:src/Libraries/STM32F10x_StdPeriph_Driver/src/stm32f10x_flash.c **** {
 212              		.loc 1 373 1 is_stmt 1 view -0
 213              		.cfi_startproc
 214              		@ args = 0, pretend = 0, frame = 0
 215              		@ frame_needed = 0, uses_anonymous_args = 0
 216              		@ link register save eliminated.
 374:src/Libraries/STM32F10x_StdPeriph_Driver/src/stm32f10x_flash.c ****   /* Set the Lock Bit to lock the FPEC and the CR of  Bank1 */
 375:src/Libraries/STM32F10x_StdPeriph_Driver/src/stm32f10x_flash.c ****   FLASH->CR |= CR_LOCK_Set;
 217              		.loc 1 375 3 view .LVU39
 218              		.loc 1 375 13 is_stmt 0 view .LVU40
 219 0000 024A     		ldr	r2, .L17
 220 0002 1369     		ldr	r3, [r2, #16]
 221 0004 43F08003 		orr	r3, r3, #128
 222 0008 1361     		str	r3, [r2, #16]
 376:src/Libraries/STM32F10x_StdPeriph_Driver/src/stm32f10x_flash.c **** 
 377:src/Libraries/STM32F10x_StdPeriph_Driver/src/stm32f10x_flash.c **** #ifdef STM32F10X_XL
 378:src/Libraries/STM32F10x_StdPeriph_Driver/src/stm32f10x_flash.c ****   /* Set the Lock Bit to lock the FPEC and the CR of  Bank2 */
 379:src/Libraries/STM32F10x_StdPeriph_Driver/src/stm32f10x_flash.c ****   FLASH->CR2 |= CR_LOCK_Set;
 380:src/Libraries/STM32F10x_StdPeriph_Driver/src/stm32f10x_flash.c **** #endif /* STM32F10X_XL */
 381:src/Libraries/STM32F10x_StdPeriph_Driver/src/stm32f10x_flash.c **** }
 223              		.loc 1 381 1 view .LVU41
 224 000a 7047     		bx	lr
 225              	.L18:
 226              		.align	2
 227              	.L17:
 228 000c 00200240 		.word	1073881088
 229              		.cfi_endproc
 230              	.LFE34:
 232              		.section	.text.FLASH_LockBank1,"ax",%progbits
 233              		.align	1
 234              		.global	FLASH_LockBank1
 235              		.syntax unified
 236              		.thumb
 237              		.thumb_func
 238              		.fpu softvfp
 240              	FLASH_LockBank1:
 241              	.LFB35:
 382:src/Libraries/STM32F10x_StdPeriph_Driver/src/stm32f10x_flash.c **** 
 383:src/Libraries/STM32F10x_StdPeriph_Driver/src/stm32f10x_flash.c **** /**
 384:src/Libraries/STM32F10x_StdPeriph_Driver/src/stm32f10x_flash.c ****   * @brief  Locks the FLASH Bank1 Program Erase Controller.
 385:src/Libraries/STM32F10x_StdPeriph_Driver/src/stm32f10x_flash.c ****   * @note   this function can be used for all STM32F10x devices.
 386:src/Libraries/STM32F10x_StdPeriph_Driver/src/stm32f10x_flash.c ****   *         - For STM32F10X_XL devices this function Locks Bank1.
 387:src/Libraries/STM32F10x_StdPeriph_Driver/src/stm32f10x_flash.c ****   *         - For all other devices it Locks Bank1 and it is equivalent 
 388:src/Libraries/STM32F10x_StdPeriph_Driver/src/stm32f10x_flash.c ****   *           to FLASH_Lock function.
 389:src/Libraries/STM32F10x_StdPeriph_Driver/src/stm32f10x_flash.c ****   * @param  None
 390:src/Libraries/STM32F10x_StdPeriph_Driver/src/stm32f10x_flash.c ****   * @retval None
 391:src/Libraries/STM32F10x_StdPeriph_Driver/src/stm32f10x_flash.c ****   */
 392:src/Libraries/STM32F10x_StdPeriph_Driver/src/stm32f10x_flash.c **** void FLASH_LockBank1(void)
 393:src/Libraries/STM32F10x_StdPeriph_Driver/src/stm32f10x_flash.c **** {
 242              		.loc 1 393 1 is_stmt 1 view -0
 243              		.cfi_startproc
 244              		@ args = 0, pretend = 0, frame = 0
 245              		@ frame_needed = 0, uses_anonymous_args = 0
 246              		@ link register save eliminated.
 394:src/Libraries/STM32F10x_StdPeriph_Driver/src/stm32f10x_flash.c ****   /* Set the Lock Bit to lock the FPEC and the CR of  Bank1 */
ARM GAS  C:\Users\dell\AppData\Local\Temp\ccqOk9Jh.s 			page 12


 395:src/Libraries/STM32F10x_StdPeriph_Driver/src/stm32f10x_flash.c ****   FLASH->CR |= CR_LOCK_Set;
 247              		.loc 1 395 3 view .LVU43
 248              		.loc 1 395 13 is_stmt 0 view .LVU44
 249 0000 024A     		ldr	r2, .L20
 250 0002 1369     		ldr	r3, [r2, #16]
 251 0004 43F08003 		orr	r3, r3, #128
 252 0008 1361     		str	r3, [r2, #16]
 396:src/Libraries/STM32F10x_StdPeriph_Driver/src/stm32f10x_flash.c **** }
 253              		.loc 1 396 1 view .LVU45
 254 000a 7047     		bx	lr
 255              	.L21:
 256              		.align	2
 257              	.L20:
 258 000c 00200240 		.word	1073881088
 259              		.cfi_endproc
 260              	.LFE35:
 262              		.section	.text.FLASH_GetUserOptionByte,"ax",%progbits
 263              		.align	1
 264              		.global	FLASH_GetUserOptionByte
 265              		.syntax unified
 266              		.thumb
 267              		.thumb_func
 268              		.fpu softvfp
 270              	FLASH_GetUserOptionByte:
 271              	.LFB46:
 397:src/Libraries/STM32F10x_StdPeriph_Driver/src/stm32f10x_flash.c **** 
 398:src/Libraries/STM32F10x_StdPeriph_Driver/src/stm32f10x_flash.c **** #ifdef STM32F10X_XL
 399:src/Libraries/STM32F10x_StdPeriph_Driver/src/stm32f10x_flash.c **** /**
 400:src/Libraries/STM32F10x_StdPeriph_Driver/src/stm32f10x_flash.c ****   * @brief  Locks the FLASH Bank2 Program Erase Controller.
 401:src/Libraries/STM32F10x_StdPeriph_Driver/src/stm32f10x_flash.c ****   * @note   This function can be used only for STM32F10X_XL density devices.
 402:src/Libraries/STM32F10x_StdPeriph_Driver/src/stm32f10x_flash.c ****   * @param  None
 403:src/Libraries/STM32F10x_StdPeriph_Driver/src/stm32f10x_flash.c ****   * @retval None
 404:src/Libraries/STM32F10x_StdPeriph_Driver/src/stm32f10x_flash.c ****   */
 405:src/Libraries/STM32F10x_StdPeriph_Driver/src/stm32f10x_flash.c **** void FLASH_LockBank2(void)
 406:src/Libraries/STM32F10x_StdPeriph_Driver/src/stm32f10x_flash.c **** {
 407:src/Libraries/STM32F10x_StdPeriph_Driver/src/stm32f10x_flash.c ****   /* Set the Lock Bit to lock the FPEC and the CR of  Bank2 */
 408:src/Libraries/STM32F10x_StdPeriph_Driver/src/stm32f10x_flash.c ****   FLASH->CR2 |= CR_LOCK_Set;
 409:src/Libraries/STM32F10x_StdPeriph_Driver/src/stm32f10x_flash.c **** }
 410:src/Libraries/STM32F10x_StdPeriph_Driver/src/stm32f10x_flash.c **** #endif /* STM32F10X_XL */
 411:src/Libraries/STM32F10x_StdPeriph_Driver/src/stm32f10x_flash.c **** 
 412:src/Libraries/STM32F10x_StdPeriph_Driver/src/stm32f10x_flash.c **** /**
 413:src/Libraries/STM32F10x_StdPeriph_Driver/src/stm32f10x_flash.c ****   * @brief  Erases a specified FLASH page.
 414:src/Libraries/STM32F10x_StdPeriph_Driver/src/stm32f10x_flash.c ****   * @note   This function can be used for all STM32F10x devices.
 415:src/Libraries/STM32F10x_StdPeriph_Driver/src/stm32f10x_flash.c ****   * @param  Page_Address: The page address to be erased.
 416:src/Libraries/STM32F10x_StdPeriph_Driver/src/stm32f10x_flash.c ****   * @retval FLASH Status: The returned value can be: FLASH_BUSY, FLASH_ERROR_PG,
 417:src/Libraries/STM32F10x_StdPeriph_Driver/src/stm32f10x_flash.c ****   *         FLASH_ERROR_WRP, FLASH_COMPLETE or FLASH_TIMEOUT.
 418:src/Libraries/STM32F10x_StdPeriph_Driver/src/stm32f10x_flash.c ****   */
 419:src/Libraries/STM32F10x_StdPeriph_Driver/src/stm32f10x_flash.c **** FLASH_Status FLASH_ErasePage(uint32_t Page_Address)
 420:src/Libraries/STM32F10x_StdPeriph_Driver/src/stm32f10x_flash.c **** {
 421:src/Libraries/STM32F10x_StdPeriph_Driver/src/stm32f10x_flash.c ****   FLASH_Status status = FLASH_COMPLETE;
 422:src/Libraries/STM32F10x_StdPeriph_Driver/src/stm32f10x_flash.c ****   /* Check the parameters */
 423:src/Libraries/STM32F10x_StdPeriph_Driver/src/stm32f10x_flash.c ****   assert_param(IS_FLASH_ADDRESS(Page_Address));
 424:src/Libraries/STM32F10x_StdPeriph_Driver/src/stm32f10x_flash.c **** 
 425:src/Libraries/STM32F10x_StdPeriph_Driver/src/stm32f10x_flash.c **** #ifdef STM32F10X_XL
 426:src/Libraries/STM32F10x_StdPeriph_Driver/src/stm32f10x_flash.c ****   if(Page_Address < FLASH_BANK1_END_ADDRESS)  
 427:src/Libraries/STM32F10x_StdPeriph_Driver/src/stm32f10x_flash.c ****   {
 428:src/Libraries/STM32F10x_StdPeriph_Driver/src/stm32f10x_flash.c ****     /* Wait for last operation to be completed */
ARM GAS  C:\Users\dell\AppData\Local\Temp\ccqOk9Jh.s 			page 13


 429:src/Libraries/STM32F10x_StdPeriph_Driver/src/stm32f10x_flash.c ****     status = FLASH_WaitForLastBank1Operation(EraseTimeout);
 430:src/Libraries/STM32F10x_StdPeriph_Driver/src/stm32f10x_flash.c ****     if(status == FLASH_COMPLETE)
 431:src/Libraries/STM32F10x_StdPeriph_Driver/src/stm32f10x_flash.c ****     { 
 432:src/Libraries/STM32F10x_StdPeriph_Driver/src/stm32f10x_flash.c ****       /* if the previous operation is completed, proceed to erase the page */
 433:src/Libraries/STM32F10x_StdPeriph_Driver/src/stm32f10x_flash.c ****       FLASH->CR|= CR_PER_Set;
 434:src/Libraries/STM32F10x_StdPeriph_Driver/src/stm32f10x_flash.c ****       FLASH->AR = Page_Address; 
 435:src/Libraries/STM32F10x_StdPeriph_Driver/src/stm32f10x_flash.c ****       FLASH->CR|= CR_STRT_Set;
 436:src/Libraries/STM32F10x_StdPeriph_Driver/src/stm32f10x_flash.c ****     
 437:src/Libraries/STM32F10x_StdPeriph_Driver/src/stm32f10x_flash.c ****       /* Wait for last operation to be completed */
 438:src/Libraries/STM32F10x_StdPeriph_Driver/src/stm32f10x_flash.c ****       status = FLASH_WaitForLastBank1Operation(EraseTimeout);
 439:src/Libraries/STM32F10x_StdPeriph_Driver/src/stm32f10x_flash.c **** 
 440:src/Libraries/STM32F10x_StdPeriph_Driver/src/stm32f10x_flash.c ****       /* Disable the PER Bit */
 441:src/Libraries/STM32F10x_StdPeriph_Driver/src/stm32f10x_flash.c ****       FLASH->CR &= CR_PER_Reset;
 442:src/Libraries/STM32F10x_StdPeriph_Driver/src/stm32f10x_flash.c ****     }
 443:src/Libraries/STM32F10x_StdPeriph_Driver/src/stm32f10x_flash.c ****   }
 444:src/Libraries/STM32F10x_StdPeriph_Driver/src/stm32f10x_flash.c ****   else
 445:src/Libraries/STM32F10x_StdPeriph_Driver/src/stm32f10x_flash.c ****   {
 446:src/Libraries/STM32F10x_StdPeriph_Driver/src/stm32f10x_flash.c ****     /* Wait for last operation to be completed */
 447:src/Libraries/STM32F10x_StdPeriph_Driver/src/stm32f10x_flash.c ****     status = FLASH_WaitForLastBank2Operation(EraseTimeout);
 448:src/Libraries/STM32F10x_StdPeriph_Driver/src/stm32f10x_flash.c ****     if(status == FLASH_COMPLETE)
 449:src/Libraries/STM32F10x_StdPeriph_Driver/src/stm32f10x_flash.c ****     { 
 450:src/Libraries/STM32F10x_StdPeriph_Driver/src/stm32f10x_flash.c ****       /* if the previous operation is completed, proceed to erase the page */
 451:src/Libraries/STM32F10x_StdPeriph_Driver/src/stm32f10x_flash.c ****       FLASH->CR2|= CR_PER_Set;
 452:src/Libraries/STM32F10x_StdPeriph_Driver/src/stm32f10x_flash.c ****       FLASH->AR2 = Page_Address; 
 453:src/Libraries/STM32F10x_StdPeriph_Driver/src/stm32f10x_flash.c ****       FLASH->CR2|= CR_STRT_Set;
 454:src/Libraries/STM32F10x_StdPeriph_Driver/src/stm32f10x_flash.c ****     
 455:src/Libraries/STM32F10x_StdPeriph_Driver/src/stm32f10x_flash.c ****       /* Wait for last operation to be completed */
 456:src/Libraries/STM32F10x_StdPeriph_Driver/src/stm32f10x_flash.c ****       status = FLASH_WaitForLastBank2Operation(EraseTimeout);
 457:src/Libraries/STM32F10x_StdPeriph_Driver/src/stm32f10x_flash.c ****       
 458:src/Libraries/STM32F10x_StdPeriph_Driver/src/stm32f10x_flash.c ****       /* Disable the PER Bit */
 459:src/Libraries/STM32F10x_StdPeriph_Driver/src/stm32f10x_flash.c ****       FLASH->CR2 &= CR_PER_Reset;
 460:src/Libraries/STM32F10x_StdPeriph_Driver/src/stm32f10x_flash.c ****     }
 461:src/Libraries/STM32F10x_StdPeriph_Driver/src/stm32f10x_flash.c ****   }
 462:src/Libraries/STM32F10x_StdPeriph_Driver/src/stm32f10x_flash.c **** #else
 463:src/Libraries/STM32F10x_StdPeriph_Driver/src/stm32f10x_flash.c ****   /* Wait for last operation to be completed */
 464:src/Libraries/STM32F10x_StdPeriph_Driver/src/stm32f10x_flash.c ****   status = FLASH_WaitForLastOperation(EraseTimeout);
 465:src/Libraries/STM32F10x_StdPeriph_Driver/src/stm32f10x_flash.c ****   
 466:src/Libraries/STM32F10x_StdPeriph_Driver/src/stm32f10x_flash.c ****   if(status == FLASH_COMPLETE)
 467:src/Libraries/STM32F10x_StdPeriph_Driver/src/stm32f10x_flash.c ****   { 
 468:src/Libraries/STM32F10x_StdPeriph_Driver/src/stm32f10x_flash.c ****     /* if the previous operation is completed, proceed to erase the page */
 469:src/Libraries/STM32F10x_StdPeriph_Driver/src/stm32f10x_flash.c ****     FLASH->CR|= CR_PER_Set;
 470:src/Libraries/STM32F10x_StdPeriph_Driver/src/stm32f10x_flash.c ****     FLASH->AR = Page_Address; 
 471:src/Libraries/STM32F10x_StdPeriph_Driver/src/stm32f10x_flash.c ****     FLASH->CR|= CR_STRT_Set;
 472:src/Libraries/STM32F10x_StdPeriph_Driver/src/stm32f10x_flash.c ****     
 473:src/Libraries/STM32F10x_StdPeriph_Driver/src/stm32f10x_flash.c ****     /* Wait for last operation to be completed */
 474:src/Libraries/STM32F10x_StdPeriph_Driver/src/stm32f10x_flash.c ****     status = FLASH_WaitForLastOperation(EraseTimeout);
 475:src/Libraries/STM32F10x_StdPeriph_Driver/src/stm32f10x_flash.c ****     
 476:src/Libraries/STM32F10x_StdPeriph_Driver/src/stm32f10x_flash.c ****     /* Disable the PER Bit */
 477:src/Libraries/STM32F10x_StdPeriph_Driver/src/stm32f10x_flash.c ****     FLASH->CR &= CR_PER_Reset;
 478:src/Libraries/STM32F10x_StdPeriph_Driver/src/stm32f10x_flash.c ****   }
 479:src/Libraries/STM32F10x_StdPeriph_Driver/src/stm32f10x_flash.c **** #endif /* STM32F10X_XL */
 480:src/Libraries/STM32F10x_StdPeriph_Driver/src/stm32f10x_flash.c **** 
 481:src/Libraries/STM32F10x_StdPeriph_Driver/src/stm32f10x_flash.c ****   /* Return the Erase Status */
 482:src/Libraries/STM32F10x_StdPeriph_Driver/src/stm32f10x_flash.c ****   return status;
 483:src/Libraries/STM32F10x_StdPeriph_Driver/src/stm32f10x_flash.c **** }
 484:src/Libraries/STM32F10x_StdPeriph_Driver/src/stm32f10x_flash.c **** 
 485:src/Libraries/STM32F10x_StdPeriph_Driver/src/stm32f10x_flash.c **** /**
ARM GAS  C:\Users\dell\AppData\Local\Temp\ccqOk9Jh.s 			page 14


 486:src/Libraries/STM32F10x_StdPeriph_Driver/src/stm32f10x_flash.c ****   * @brief  Erases all FLASH pages.
 487:src/Libraries/STM32F10x_StdPeriph_Driver/src/stm32f10x_flash.c ****   * @note   This function can be used for all STM32F10x devices.
 488:src/Libraries/STM32F10x_StdPeriph_Driver/src/stm32f10x_flash.c ****   * @param  None
 489:src/Libraries/STM32F10x_StdPeriph_Driver/src/stm32f10x_flash.c ****   * @retval FLASH Status: The returned value can be: FLASH_ERROR_PG,
 490:src/Libraries/STM32F10x_StdPeriph_Driver/src/stm32f10x_flash.c ****   *         FLASH_ERROR_WRP, FLASH_COMPLETE or FLASH_TIMEOUT.
 491:src/Libraries/STM32F10x_StdPeriph_Driver/src/stm32f10x_flash.c ****   */
 492:src/Libraries/STM32F10x_StdPeriph_Driver/src/stm32f10x_flash.c **** FLASH_Status FLASH_EraseAllPages(void)
 493:src/Libraries/STM32F10x_StdPeriph_Driver/src/stm32f10x_flash.c **** {
 494:src/Libraries/STM32F10x_StdPeriph_Driver/src/stm32f10x_flash.c ****   FLASH_Status status = FLASH_COMPLETE;
 495:src/Libraries/STM32F10x_StdPeriph_Driver/src/stm32f10x_flash.c **** 
 496:src/Libraries/STM32F10x_StdPeriph_Driver/src/stm32f10x_flash.c **** #ifdef STM32F10X_XL
 497:src/Libraries/STM32F10x_StdPeriph_Driver/src/stm32f10x_flash.c ****   /* Wait for last operation to be completed */
 498:src/Libraries/STM32F10x_StdPeriph_Driver/src/stm32f10x_flash.c ****   status = FLASH_WaitForLastBank1Operation(EraseTimeout);
 499:src/Libraries/STM32F10x_StdPeriph_Driver/src/stm32f10x_flash.c ****   
 500:src/Libraries/STM32F10x_StdPeriph_Driver/src/stm32f10x_flash.c ****   if(status == FLASH_COMPLETE)
 501:src/Libraries/STM32F10x_StdPeriph_Driver/src/stm32f10x_flash.c ****   {
 502:src/Libraries/STM32F10x_StdPeriph_Driver/src/stm32f10x_flash.c ****     /* if the previous operation is completed, proceed to erase all pages */
 503:src/Libraries/STM32F10x_StdPeriph_Driver/src/stm32f10x_flash.c ****      FLASH->CR |= CR_MER_Set;
 504:src/Libraries/STM32F10x_StdPeriph_Driver/src/stm32f10x_flash.c ****      FLASH->CR |= CR_STRT_Set;
 505:src/Libraries/STM32F10x_StdPeriph_Driver/src/stm32f10x_flash.c ****     
 506:src/Libraries/STM32F10x_StdPeriph_Driver/src/stm32f10x_flash.c ****     /* Wait for last operation to be completed */
 507:src/Libraries/STM32F10x_StdPeriph_Driver/src/stm32f10x_flash.c ****     status = FLASH_WaitForLastBank1Operation(EraseTimeout);
 508:src/Libraries/STM32F10x_StdPeriph_Driver/src/stm32f10x_flash.c ****     
 509:src/Libraries/STM32F10x_StdPeriph_Driver/src/stm32f10x_flash.c ****     /* Disable the MER Bit */
 510:src/Libraries/STM32F10x_StdPeriph_Driver/src/stm32f10x_flash.c ****     FLASH->CR &= CR_MER_Reset;
 511:src/Libraries/STM32F10x_StdPeriph_Driver/src/stm32f10x_flash.c ****   }    
 512:src/Libraries/STM32F10x_StdPeriph_Driver/src/stm32f10x_flash.c ****   if(status == FLASH_COMPLETE)
 513:src/Libraries/STM32F10x_StdPeriph_Driver/src/stm32f10x_flash.c ****   {
 514:src/Libraries/STM32F10x_StdPeriph_Driver/src/stm32f10x_flash.c ****     /* if the previous operation is completed, proceed to erase all pages */
 515:src/Libraries/STM32F10x_StdPeriph_Driver/src/stm32f10x_flash.c ****      FLASH->CR2 |= CR_MER_Set;
 516:src/Libraries/STM32F10x_StdPeriph_Driver/src/stm32f10x_flash.c ****      FLASH->CR2 |= CR_STRT_Set;
 517:src/Libraries/STM32F10x_StdPeriph_Driver/src/stm32f10x_flash.c ****     
 518:src/Libraries/STM32F10x_StdPeriph_Driver/src/stm32f10x_flash.c ****     /* Wait for last operation to be completed */
 519:src/Libraries/STM32F10x_StdPeriph_Driver/src/stm32f10x_flash.c ****     status = FLASH_WaitForLastBank2Operation(EraseTimeout);
 520:src/Libraries/STM32F10x_StdPeriph_Driver/src/stm32f10x_flash.c ****     
 521:src/Libraries/STM32F10x_StdPeriph_Driver/src/stm32f10x_flash.c ****     /* Disable the MER Bit */
 522:src/Libraries/STM32F10x_StdPeriph_Driver/src/stm32f10x_flash.c ****     FLASH->CR2 &= CR_MER_Reset;
 523:src/Libraries/STM32F10x_StdPeriph_Driver/src/stm32f10x_flash.c ****   }
 524:src/Libraries/STM32F10x_StdPeriph_Driver/src/stm32f10x_flash.c **** #else
 525:src/Libraries/STM32F10x_StdPeriph_Driver/src/stm32f10x_flash.c ****   /* Wait for last operation to be completed */
 526:src/Libraries/STM32F10x_StdPeriph_Driver/src/stm32f10x_flash.c ****   status = FLASH_WaitForLastOperation(EraseTimeout);
 527:src/Libraries/STM32F10x_StdPeriph_Driver/src/stm32f10x_flash.c ****   if(status == FLASH_COMPLETE)
 528:src/Libraries/STM32F10x_StdPeriph_Driver/src/stm32f10x_flash.c ****   {
 529:src/Libraries/STM32F10x_StdPeriph_Driver/src/stm32f10x_flash.c ****     /* if the previous operation is completed, proceed to erase all pages */
 530:src/Libraries/STM32F10x_StdPeriph_Driver/src/stm32f10x_flash.c ****      FLASH->CR |= CR_MER_Set;
 531:src/Libraries/STM32F10x_StdPeriph_Driver/src/stm32f10x_flash.c ****      FLASH->CR |= CR_STRT_Set;
 532:src/Libraries/STM32F10x_StdPeriph_Driver/src/stm32f10x_flash.c ****     
 533:src/Libraries/STM32F10x_StdPeriph_Driver/src/stm32f10x_flash.c ****     /* Wait for last operation to be completed */
 534:src/Libraries/STM32F10x_StdPeriph_Driver/src/stm32f10x_flash.c ****     status = FLASH_WaitForLastOperation(EraseTimeout);
 535:src/Libraries/STM32F10x_StdPeriph_Driver/src/stm32f10x_flash.c **** 
 536:src/Libraries/STM32F10x_StdPeriph_Driver/src/stm32f10x_flash.c ****     /* Disable the MER Bit */
 537:src/Libraries/STM32F10x_StdPeriph_Driver/src/stm32f10x_flash.c ****     FLASH->CR &= CR_MER_Reset;
 538:src/Libraries/STM32F10x_StdPeriph_Driver/src/stm32f10x_flash.c ****   }
 539:src/Libraries/STM32F10x_StdPeriph_Driver/src/stm32f10x_flash.c **** #endif /* STM32F10X_XL */
 540:src/Libraries/STM32F10x_StdPeriph_Driver/src/stm32f10x_flash.c **** 
 541:src/Libraries/STM32F10x_StdPeriph_Driver/src/stm32f10x_flash.c ****   /* Return the Erase Status */
 542:src/Libraries/STM32F10x_StdPeriph_Driver/src/stm32f10x_flash.c ****   return status;
ARM GAS  C:\Users\dell\AppData\Local\Temp\ccqOk9Jh.s 			page 15


 543:src/Libraries/STM32F10x_StdPeriph_Driver/src/stm32f10x_flash.c **** }
 544:src/Libraries/STM32F10x_StdPeriph_Driver/src/stm32f10x_flash.c **** 
 545:src/Libraries/STM32F10x_StdPeriph_Driver/src/stm32f10x_flash.c **** /**
 546:src/Libraries/STM32F10x_StdPeriph_Driver/src/stm32f10x_flash.c ****   * @brief  Erases all Bank1 FLASH pages.
 547:src/Libraries/STM32F10x_StdPeriph_Driver/src/stm32f10x_flash.c ****   * @note   This function can be used for all STM32F10x devices.
 548:src/Libraries/STM32F10x_StdPeriph_Driver/src/stm32f10x_flash.c ****   *         - For STM32F10X_XL devices this function erases all Bank1 pages.
 549:src/Libraries/STM32F10x_StdPeriph_Driver/src/stm32f10x_flash.c ****   *         - For all other devices it erases all Bank1 pages and it is equivalent 
 550:src/Libraries/STM32F10x_StdPeriph_Driver/src/stm32f10x_flash.c ****   *           to FLASH_EraseAllPages function.
 551:src/Libraries/STM32F10x_StdPeriph_Driver/src/stm32f10x_flash.c ****   * @param  None
 552:src/Libraries/STM32F10x_StdPeriph_Driver/src/stm32f10x_flash.c ****   * @retval FLASH Status: The returned value can be: FLASH_ERROR_PG,
 553:src/Libraries/STM32F10x_StdPeriph_Driver/src/stm32f10x_flash.c ****   *         FLASH_ERROR_WRP, FLASH_COMPLETE or FLASH_TIMEOUT.
 554:src/Libraries/STM32F10x_StdPeriph_Driver/src/stm32f10x_flash.c ****   */
 555:src/Libraries/STM32F10x_StdPeriph_Driver/src/stm32f10x_flash.c **** FLASH_Status FLASH_EraseAllBank1Pages(void)
 556:src/Libraries/STM32F10x_StdPeriph_Driver/src/stm32f10x_flash.c **** {
 557:src/Libraries/STM32F10x_StdPeriph_Driver/src/stm32f10x_flash.c ****   FLASH_Status status = FLASH_COMPLETE;
 558:src/Libraries/STM32F10x_StdPeriph_Driver/src/stm32f10x_flash.c ****   /* Wait for last operation to be completed */
 559:src/Libraries/STM32F10x_StdPeriph_Driver/src/stm32f10x_flash.c ****   status = FLASH_WaitForLastBank1Operation(EraseTimeout);
 560:src/Libraries/STM32F10x_StdPeriph_Driver/src/stm32f10x_flash.c ****   
 561:src/Libraries/STM32F10x_StdPeriph_Driver/src/stm32f10x_flash.c ****   if(status == FLASH_COMPLETE)
 562:src/Libraries/STM32F10x_StdPeriph_Driver/src/stm32f10x_flash.c ****   {
 563:src/Libraries/STM32F10x_StdPeriph_Driver/src/stm32f10x_flash.c ****     /* if the previous operation is completed, proceed to erase all pages */
 564:src/Libraries/STM32F10x_StdPeriph_Driver/src/stm32f10x_flash.c ****      FLASH->CR |= CR_MER_Set;
 565:src/Libraries/STM32F10x_StdPeriph_Driver/src/stm32f10x_flash.c ****      FLASH->CR |= CR_STRT_Set;
 566:src/Libraries/STM32F10x_StdPeriph_Driver/src/stm32f10x_flash.c ****     
 567:src/Libraries/STM32F10x_StdPeriph_Driver/src/stm32f10x_flash.c ****     /* Wait for last operation to be completed */
 568:src/Libraries/STM32F10x_StdPeriph_Driver/src/stm32f10x_flash.c ****     status = FLASH_WaitForLastBank1Operation(EraseTimeout);
 569:src/Libraries/STM32F10x_StdPeriph_Driver/src/stm32f10x_flash.c ****     
 570:src/Libraries/STM32F10x_StdPeriph_Driver/src/stm32f10x_flash.c ****     /* Disable the MER Bit */
 571:src/Libraries/STM32F10x_StdPeriph_Driver/src/stm32f10x_flash.c ****     FLASH->CR &= CR_MER_Reset;
 572:src/Libraries/STM32F10x_StdPeriph_Driver/src/stm32f10x_flash.c ****   }    
 573:src/Libraries/STM32F10x_StdPeriph_Driver/src/stm32f10x_flash.c ****   /* Return the Erase Status */
 574:src/Libraries/STM32F10x_StdPeriph_Driver/src/stm32f10x_flash.c ****   return status;
 575:src/Libraries/STM32F10x_StdPeriph_Driver/src/stm32f10x_flash.c **** }
 576:src/Libraries/STM32F10x_StdPeriph_Driver/src/stm32f10x_flash.c **** 
 577:src/Libraries/STM32F10x_StdPeriph_Driver/src/stm32f10x_flash.c **** #ifdef STM32F10X_XL
 578:src/Libraries/STM32F10x_StdPeriph_Driver/src/stm32f10x_flash.c **** /**
 579:src/Libraries/STM32F10x_StdPeriph_Driver/src/stm32f10x_flash.c ****   * @brief  Erases all Bank2 FLASH pages.
 580:src/Libraries/STM32F10x_StdPeriph_Driver/src/stm32f10x_flash.c ****   * @note   This function can be used only for STM32F10x_XL density devices.
 581:src/Libraries/STM32F10x_StdPeriph_Driver/src/stm32f10x_flash.c ****   * @param  None
 582:src/Libraries/STM32F10x_StdPeriph_Driver/src/stm32f10x_flash.c ****   * @retval FLASH Status: The returned value can be: FLASH_ERROR_PG,
 583:src/Libraries/STM32F10x_StdPeriph_Driver/src/stm32f10x_flash.c ****   *         FLASH_ERROR_WRP, FLASH_COMPLETE or FLASH_TIMEOUT.
 584:src/Libraries/STM32F10x_StdPeriph_Driver/src/stm32f10x_flash.c ****   */
 585:src/Libraries/STM32F10x_StdPeriph_Driver/src/stm32f10x_flash.c **** FLASH_Status FLASH_EraseAllBank2Pages(void)
 586:src/Libraries/STM32F10x_StdPeriph_Driver/src/stm32f10x_flash.c **** {
 587:src/Libraries/STM32F10x_StdPeriph_Driver/src/stm32f10x_flash.c ****   FLASH_Status status = FLASH_COMPLETE;
 588:src/Libraries/STM32F10x_StdPeriph_Driver/src/stm32f10x_flash.c ****   /* Wait for last operation to be completed */
 589:src/Libraries/STM32F10x_StdPeriph_Driver/src/stm32f10x_flash.c ****   status = FLASH_WaitForLastBank2Operation(EraseTimeout);
 590:src/Libraries/STM32F10x_StdPeriph_Driver/src/stm32f10x_flash.c ****   
 591:src/Libraries/STM32F10x_StdPeriph_Driver/src/stm32f10x_flash.c ****   if(status == FLASH_COMPLETE)
 592:src/Libraries/STM32F10x_StdPeriph_Driver/src/stm32f10x_flash.c ****   {
 593:src/Libraries/STM32F10x_StdPeriph_Driver/src/stm32f10x_flash.c ****     /* if the previous operation is completed, proceed to erase all pages */
 594:src/Libraries/STM32F10x_StdPeriph_Driver/src/stm32f10x_flash.c ****      FLASH->CR2 |= CR_MER_Set;
 595:src/Libraries/STM32F10x_StdPeriph_Driver/src/stm32f10x_flash.c ****      FLASH->CR2 |= CR_STRT_Set;
 596:src/Libraries/STM32F10x_StdPeriph_Driver/src/stm32f10x_flash.c ****     
 597:src/Libraries/STM32F10x_StdPeriph_Driver/src/stm32f10x_flash.c ****     /* Wait for last operation to be completed */
 598:src/Libraries/STM32F10x_StdPeriph_Driver/src/stm32f10x_flash.c ****     status = FLASH_WaitForLastBank2Operation(EraseTimeout);
 599:src/Libraries/STM32F10x_StdPeriph_Driver/src/stm32f10x_flash.c **** 
ARM GAS  C:\Users\dell\AppData\Local\Temp\ccqOk9Jh.s 			page 16


 600:src/Libraries/STM32F10x_StdPeriph_Driver/src/stm32f10x_flash.c ****     /* Disable the MER Bit */
 601:src/Libraries/STM32F10x_StdPeriph_Driver/src/stm32f10x_flash.c ****     FLASH->CR2 &= CR_MER_Reset;
 602:src/Libraries/STM32F10x_StdPeriph_Driver/src/stm32f10x_flash.c ****   }    
 603:src/Libraries/STM32F10x_StdPeriph_Driver/src/stm32f10x_flash.c ****   /* Return the Erase Status */
 604:src/Libraries/STM32F10x_StdPeriph_Driver/src/stm32f10x_flash.c ****   return status;
 605:src/Libraries/STM32F10x_StdPeriph_Driver/src/stm32f10x_flash.c **** }
 606:src/Libraries/STM32F10x_StdPeriph_Driver/src/stm32f10x_flash.c **** #endif /* STM32F10X_XL */
 607:src/Libraries/STM32F10x_StdPeriph_Driver/src/stm32f10x_flash.c **** 
 608:src/Libraries/STM32F10x_StdPeriph_Driver/src/stm32f10x_flash.c **** /**
 609:src/Libraries/STM32F10x_StdPeriph_Driver/src/stm32f10x_flash.c ****   * @brief  Erases the FLASH option bytes.
 610:src/Libraries/STM32F10x_StdPeriph_Driver/src/stm32f10x_flash.c ****   * @note   This functions erases all option bytes except the Read protection (RDP). 
 611:src/Libraries/STM32F10x_StdPeriph_Driver/src/stm32f10x_flash.c ****   * @note   This function can be used for all STM32F10x devices.
 612:src/Libraries/STM32F10x_StdPeriph_Driver/src/stm32f10x_flash.c ****   * @param  None
 613:src/Libraries/STM32F10x_StdPeriph_Driver/src/stm32f10x_flash.c ****   * @retval FLASH Status: The returned value can be: FLASH_ERROR_PG,
 614:src/Libraries/STM32F10x_StdPeriph_Driver/src/stm32f10x_flash.c ****   *         FLASH_ERROR_WRP, FLASH_COMPLETE or FLASH_TIMEOUT.
 615:src/Libraries/STM32F10x_StdPeriph_Driver/src/stm32f10x_flash.c ****   */
 616:src/Libraries/STM32F10x_StdPeriph_Driver/src/stm32f10x_flash.c **** FLASH_Status FLASH_EraseOptionBytes(void)
 617:src/Libraries/STM32F10x_StdPeriph_Driver/src/stm32f10x_flash.c **** {
 618:src/Libraries/STM32F10x_StdPeriph_Driver/src/stm32f10x_flash.c ****   uint16_t rdptmp = RDP_Key;
 619:src/Libraries/STM32F10x_StdPeriph_Driver/src/stm32f10x_flash.c **** 
 620:src/Libraries/STM32F10x_StdPeriph_Driver/src/stm32f10x_flash.c ****   FLASH_Status status = FLASH_COMPLETE;
 621:src/Libraries/STM32F10x_StdPeriph_Driver/src/stm32f10x_flash.c **** 
 622:src/Libraries/STM32F10x_StdPeriph_Driver/src/stm32f10x_flash.c ****   /* Get the actual read protection Option Byte value */ 
 623:src/Libraries/STM32F10x_StdPeriph_Driver/src/stm32f10x_flash.c ****   if(FLASH_GetReadOutProtectionStatus() != RESET)
 624:src/Libraries/STM32F10x_StdPeriph_Driver/src/stm32f10x_flash.c ****   {
 625:src/Libraries/STM32F10x_StdPeriph_Driver/src/stm32f10x_flash.c ****     rdptmp = 0x00;  
 626:src/Libraries/STM32F10x_StdPeriph_Driver/src/stm32f10x_flash.c ****   }
 627:src/Libraries/STM32F10x_StdPeriph_Driver/src/stm32f10x_flash.c **** 
 628:src/Libraries/STM32F10x_StdPeriph_Driver/src/stm32f10x_flash.c ****   /* Wait for last operation to be completed */
 629:src/Libraries/STM32F10x_StdPeriph_Driver/src/stm32f10x_flash.c ****   status = FLASH_WaitForLastOperation(EraseTimeout);
 630:src/Libraries/STM32F10x_StdPeriph_Driver/src/stm32f10x_flash.c ****   if(status == FLASH_COMPLETE)
 631:src/Libraries/STM32F10x_StdPeriph_Driver/src/stm32f10x_flash.c ****   {
 632:src/Libraries/STM32F10x_StdPeriph_Driver/src/stm32f10x_flash.c ****     /* Authorize the small information block programming */
 633:src/Libraries/STM32F10x_StdPeriph_Driver/src/stm32f10x_flash.c ****     FLASH->OPTKEYR = FLASH_KEY1;
 634:src/Libraries/STM32F10x_StdPeriph_Driver/src/stm32f10x_flash.c ****     FLASH->OPTKEYR = FLASH_KEY2;
 635:src/Libraries/STM32F10x_StdPeriph_Driver/src/stm32f10x_flash.c ****     
 636:src/Libraries/STM32F10x_StdPeriph_Driver/src/stm32f10x_flash.c ****     /* if the previous operation is completed, proceed to erase the option bytes */
 637:src/Libraries/STM32F10x_StdPeriph_Driver/src/stm32f10x_flash.c ****     FLASH->CR |= CR_OPTER_Set;
 638:src/Libraries/STM32F10x_StdPeriph_Driver/src/stm32f10x_flash.c ****     FLASH->CR |= CR_STRT_Set;
 639:src/Libraries/STM32F10x_StdPeriph_Driver/src/stm32f10x_flash.c ****     /* Wait for last operation to be completed */
 640:src/Libraries/STM32F10x_StdPeriph_Driver/src/stm32f10x_flash.c ****     status = FLASH_WaitForLastOperation(EraseTimeout);
 641:src/Libraries/STM32F10x_StdPeriph_Driver/src/stm32f10x_flash.c ****     
 642:src/Libraries/STM32F10x_StdPeriph_Driver/src/stm32f10x_flash.c ****     if(status == FLASH_COMPLETE)
 643:src/Libraries/STM32F10x_StdPeriph_Driver/src/stm32f10x_flash.c ****     {
 644:src/Libraries/STM32F10x_StdPeriph_Driver/src/stm32f10x_flash.c ****       /* if the erase operation is completed, disable the OPTER Bit */
 645:src/Libraries/STM32F10x_StdPeriph_Driver/src/stm32f10x_flash.c ****       FLASH->CR &= CR_OPTER_Reset;
 646:src/Libraries/STM32F10x_StdPeriph_Driver/src/stm32f10x_flash.c ****        
 647:src/Libraries/STM32F10x_StdPeriph_Driver/src/stm32f10x_flash.c ****       /* Enable the Option Bytes Programming operation */
 648:src/Libraries/STM32F10x_StdPeriph_Driver/src/stm32f10x_flash.c ****       FLASH->CR |= CR_OPTPG_Set;
 649:src/Libraries/STM32F10x_StdPeriph_Driver/src/stm32f10x_flash.c ****       /* Restore the last read protection Option Byte value */
 650:src/Libraries/STM32F10x_StdPeriph_Driver/src/stm32f10x_flash.c ****       OB->RDP = (uint16_t)rdptmp; 
 651:src/Libraries/STM32F10x_StdPeriph_Driver/src/stm32f10x_flash.c ****       /* Wait for last operation to be completed */
 652:src/Libraries/STM32F10x_StdPeriph_Driver/src/stm32f10x_flash.c ****       status = FLASH_WaitForLastOperation(ProgramTimeout);
 653:src/Libraries/STM32F10x_StdPeriph_Driver/src/stm32f10x_flash.c ****  
 654:src/Libraries/STM32F10x_StdPeriph_Driver/src/stm32f10x_flash.c ****       if(status != FLASH_TIMEOUT)
 655:src/Libraries/STM32F10x_StdPeriph_Driver/src/stm32f10x_flash.c ****       {
 656:src/Libraries/STM32F10x_StdPeriph_Driver/src/stm32f10x_flash.c ****         /* if the program operation is completed, disable the OPTPG Bit */
ARM GAS  C:\Users\dell\AppData\Local\Temp\ccqOk9Jh.s 			page 17


 657:src/Libraries/STM32F10x_StdPeriph_Driver/src/stm32f10x_flash.c ****         FLASH->CR &= CR_OPTPG_Reset;
 658:src/Libraries/STM32F10x_StdPeriph_Driver/src/stm32f10x_flash.c ****       }
 659:src/Libraries/STM32F10x_StdPeriph_Driver/src/stm32f10x_flash.c ****     }
 660:src/Libraries/STM32F10x_StdPeriph_Driver/src/stm32f10x_flash.c ****     else
 661:src/Libraries/STM32F10x_StdPeriph_Driver/src/stm32f10x_flash.c ****     {
 662:src/Libraries/STM32F10x_StdPeriph_Driver/src/stm32f10x_flash.c ****       if (status != FLASH_TIMEOUT)
 663:src/Libraries/STM32F10x_StdPeriph_Driver/src/stm32f10x_flash.c ****       {
 664:src/Libraries/STM32F10x_StdPeriph_Driver/src/stm32f10x_flash.c ****         /* Disable the OPTPG Bit */
 665:src/Libraries/STM32F10x_StdPeriph_Driver/src/stm32f10x_flash.c ****         FLASH->CR &= CR_OPTPG_Reset;
 666:src/Libraries/STM32F10x_StdPeriph_Driver/src/stm32f10x_flash.c ****       }
 667:src/Libraries/STM32F10x_StdPeriph_Driver/src/stm32f10x_flash.c ****     }  
 668:src/Libraries/STM32F10x_StdPeriph_Driver/src/stm32f10x_flash.c ****   }
 669:src/Libraries/STM32F10x_StdPeriph_Driver/src/stm32f10x_flash.c ****   /* Return the erase status */
 670:src/Libraries/STM32F10x_StdPeriph_Driver/src/stm32f10x_flash.c ****   return status;
 671:src/Libraries/STM32F10x_StdPeriph_Driver/src/stm32f10x_flash.c **** }
 672:src/Libraries/STM32F10x_StdPeriph_Driver/src/stm32f10x_flash.c **** 
 673:src/Libraries/STM32F10x_StdPeriph_Driver/src/stm32f10x_flash.c **** /**
 674:src/Libraries/STM32F10x_StdPeriph_Driver/src/stm32f10x_flash.c ****   * @brief  Programs a word at a specified address.
 675:src/Libraries/STM32F10x_StdPeriph_Driver/src/stm32f10x_flash.c ****   * @note   This function can be used for all STM32F10x devices.
 676:src/Libraries/STM32F10x_StdPeriph_Driver/src/stm32f10x_flash.c ****   * @param  Address: specifies the address to be programmed.
 677:src/Libraries/STM32F10x_StdPeriph_Driver/src/stm32f10x_flash.c ****   * @param  Data: specifies the data to be programmed.
 678:src/Libraries/STM32F10x_StdPeriph_Driver/src/stm32f10x_flash.c ****   * @retval FLASH Status: The returned value can be: FLASH_ERROR_PG,
 679:src/Libraries/STM32F10x_StdPeriph_Driver/src/stm32f10x_flash.c ****   *         FLASH_ERROR_WRP, FLASH_COMPLETE or FLASH_TIMEOUT. 
 680:src/Libraries/STM32F10x_StdPeriph_Driver/src/stm32f10x_flash.c ****   */
 681:src/Libraries/STM32F10x_StdPeriph_Driver/src/stm32f10x_flash.c **** FLASH_Status FLASH_ProgramWord(uint32_t Address, uint32_t Data)
 682:src/Libraries/STM32F10x_StdPeriph_Driver/src/stm32f10x_flash.c **** {
 683:src/Libraries/STM32F10x_StdPeriph_Driver/src/stm32f10x_flash.c ****   FLASH_Status status = FLASH_COMPLETE;
 684:src/Libraries/STM32F10x_StdPeriph_Driver/src/stm32f10x_flash.c ****   __IO uint32_t tmp = 0;
 685:src/Libraries/STM32F10x_StdPeriph_Driver/src/stm32f10x_flash.c **** 
 686:src/Libraries/STM32F10x_StdPeriph_Driver/src/stm32f10x_flash.c ****   /* Check the parameters */
 687:src/Libraries/STM32F10x_StdPeriph_Driver/src/stm32f10x_flash.c ****   assert_param(IS_FLASH_ADDRESS(Address));
 688:src/Libraries/STM32F10x_StdPeriph_Driver/src/stm32f10x_flash.c **** 
 689:src/Libraries/STM32F10x_StdPeriph_Driver/src/stm32f10x_flash.c **** #ifdef STM32F10X_XL
 690:src/Libraries/STM32F10x_StdPeriph_Driver/src/stm32f10x_flash.c ****   if(Address < FLASH_BANK1_END_ADDRESS - 2)
 691:src/Libraries/STM32F10x_StdPeriph_Driver/src/stm32f10x_flash.c ****   { 
 692:src/Libraries/STM32F10x_StdPeriph_Driver/src/stm32f10x_flash.c ****     /* Wait for last operation to be completed */
 693:src/Libraries/STM32F10x_StdPeriph_Driver/src/stm32f10x_flash.c ****     status = FLASH_WaitForLastBank1Operation(ProgramTimeout); 
 694:src/Libraries/STM32F10x_StdPeriph_Driver/src/stm32f10x_flash.c ****     if(status == FLASH_COMPLETE)
 695:src/Libraries/STM32F10x_StdPeriph_Driver/src/stm32f10x_flash.c ****     {
 696:src/Libraries/STM32F10x_StdPeriph_Driver/src/stm32f10x_flash.c ****       /* if the previous operation is completed, proceed to program the new first 
 697:src/Libraries/STM32F10x_StdPeriph_Driver/src/stm32f10x_flash.c ****         half word */
 698:src/Libraries/STM32F10x_StdPeriph_Driver/src/stm32f10x_flash.c ****       FLASH->CR |= CR_PG_Set;
 699:src/Libraries/STM32F10x_StdPeriph_Driver/src/stm32f10x_flash.c ****   
 700:src/Libraries/STM32F10x_StdPeriph_Driver/src/stm32f10x_flash.c ****       *(__IO uint16_t*)Address = (uint16_t)Data;
 701:src/Libraries/STM32F10x_StdPeriph_Driver/src/stm32f10x_flash.c ****       /* Wait for last operation to be completed */
 702:src/Libraries/STM32F10x_StdPeriph_Driver/src/stm32f10x_flash.c ****       status = FLASH_WaitForLastOperation(ProgramTimeout);
 703:src/Libraries/STM32F10x_StdPeriph_Driver/src/stm32f10x_flash.c ****  
 704:src/Libraries/STM32F10x_StdPeriph_Driver/src/stm32f10x_flash.c ****       if(status == FLASH_COMPLETE)
 705:src/Libraries/STM32F10x_StdPeriph_Driver/src/stm32f10x_flash.c ****       {
 706:src/Libraries/STM32F10x_StdPeriph_Driver/src/stm32f10x_flash.c ****         /* if the previous operation is completed, proceed to program the new second 
 707:src/Libraries/STM32F10x_StdPeriph_Driver/src/stm32f10x_flash.c ****         half word */
 708:src/Libraries/STM32F10x_StdPeriph_Driver/src/stm32f10x_flash.c ****         tmp = Address + 2;
 709:src/Libraries/STM32F10x_StdPeriph_Driver/src/stm32f10x_flash.c **** 
 710:src/Libraries/STM32F10x_StdPeriph_Driver/src/stm32f10x_flash.c ****         *(__IO uint16_t*) tmp = Data >> 16;
 711:src/Libraries/STM32F10x_StdPeriph_Driver/src/stm32f10x_flash.c ****     
 712:src/Libraries/STM32F10x_StdPeriph_Driver/src/stm32f10x_flash.c ****         /* Wait for last operation to be completed */
 713:src/Libraries/STM32F10x_StdPeriph_Driver/src/stm32f10x_flash.c ****         status = FLASH_WaitForLastOperation(ProgramTimeout);
ARM GAS  C:\Users\dell\AppData\Local\Temp\ccqOk9Jh.s 			page 18


 714:src/Libraries/STM32F10x_StdPeriph_Driver/src/stm32f10x_flash.c ****         
 715:src/Libraries/STM32F10x_StdPeriph_Driver/src/stm32f10x_flash.c ****         /* Disable the PG Bit */
 716:src/Libraries/STM32F10x_StdPeriph_Driver/src/stm32f10x_flash.c ****         FLASH->CR &= CR_PG_Reset;
 717:src/Libraries/STM32F10x_StdPeriph_Driver/src/stm32f10x_flash.c ****       }
 718:src/Libraries/STM32F10x_StdPeriph_Driver/src/stm32f10x_flash.c ****       else
 719:src/Libraries/STM32F10x_StdPeriph_Driver/src/stm32f10x_flash.c ****       {
 720:src/Libraries/STM32F10x_StdPeriph_Driver/src/stm32f10x_flash.c ****         /* Disable the PG Bit */
 721:src/Libraries/STM32F10x_StdPeriph_Driver/src/stm32f10x_flash.c ****         FLASH->CR &= CR_PG_Reset;
 722:src/Libraries/STM32F10x_StdPeriph_Driver/src/stm32f10x_flash.c ****        }
 723:src/Libraries/STM32F10x_StdPeriph_Driver/src/stm32f10x_flash.c ****     }
 724:src/Libraries/STM32F10x_StdPeriph_Driver/src/stm32f10x_flash.c ****   }
 725:src/Libraries/STM32F10x_StdPeriph_Driver/src/stm32f10x_flash.c ****   else if(Address == (FLASH_BANK1_END_ADDRESS - 1))
 726:src/Libraries/STM32F10x_StdPeriph_Driver/src/stm32f10x_flash.c ****   {
 727:src/Libraries/STM32F10x_StdPeriph_Driver/src/stm32f10x_flash.c ****     /* Wait for last operation to be completed */
 728:src/Libraries/STM32F10x_StdPeriph_Driver/src/stm32f10x_flash.c ****     status = FLASH_WaitForLastBank1Operation(ProgramTimeout);
 729:src/Libraries/STM32F10x_StdPeriph_Driver/src/stm32f10x_flash.c **** 
 730:src/Libraries/STM32F10x_StdPeriph_Driver/src/stm32f10x_flash.c ****     if(status == FLASH_COMPLETE)
 731:src/Libraries/STM32F10x_StdPeriph_Driver/src/stm32f10x_flash.c ****     {
 732:src/Libraries/STM32F10x_StdPeriph_Driver/src/stm32f10x_flash.c ****       /* if the previous operation is completed, proceed to program the new first 
 733:src/Libraries/STM32F10x_StdPeriph_Driver/src/stm32f10x_flash.c ****         half word */
 734:src/Libraries/STM32F10x_StdPeriph_Driver/src/stm32f10x_flash.c ****       FLASH->CR |= CR_PG_Set;
 735:src/Libraries/STM32F10x_StdPeriph_Driver/src/stm32f10x_flash.c ****   
 736:src/Libraries/STM32F10x_StdPeriph_Driver/src/stm32f10x_flash.c ****       *(__IO uint16_t*)Address = (uint16_t)Data;
 737:src/Libraries/STM32F10x_StdPeriph_Driver/src/stm32f10x_flash.c **** 
 738:src/Libraries/STM32F10x_StdPeriph_Driver/src/stm32f10x_flash.c ****       /* Wait for last operation to be completed */
 739:src/Libraries/STM32F10x_StdPeriph_Driver/src/stm32f10x_flash.c ****       status = FLASH_WaitForLastBank1Operation(ProgramTimeout);
 740:src/Libraries/STM32F10x_StdPeriph_Driver/src/stm32f10x_flash.c ****       
 741:src/Libraries/STM32F10x_StdPeriph_Driver/src/stm32f10x_flash.c **** 	  /* Disable the PG Bit */
 742:src/Libraries/STM32F10x_StdPeriph_Driver/src/stm32f10x_flash.c ****       FLASH->CR &= CR_PG_Reset;
 743:src/Libraries/STM32F10x_StdPeriph_Driver/src/stm32f10x_flash.c ****     }
 744:src/Libraries/STM32F10x_StdPeriph_Driver/src/stm32f10x_flash.c ****     else
 745:src/Libraries/STM32F10x_StdPeriph_Driver/src/stm32f10x_flash.c ****     {
 746:src/Libraries/STM32F10x_StdPeriph_Driver/src/stm32f10x_flash.c ****       /* Disable the PG Bit */
 747:src/Libraries/STM32F10x_StdPeriph_Driver/src/stm32f10x_flash.c ****       FLASH->CR &= CR_PG_Reset;
 748:src/Libraries/STM32F10x_StdPeriph_Driver/src/stm32f10x_flash.c ****     }
 749:src/Libraries/STM32F10x_StdPeriph_Driver/src/stm32f10x_flash.c **** 
 750:src/Libraries/STM32F10x_StdPeriph_Driver/src/stm32f10x_flash.c ****     /* Wait for last operation to be completed */
 751:src/Libraries/STM32F10x_StdPeriph_Driver/src/stm32f10x_flash.c ****     status = FLASH_WaitForLastBank2Operation(ProgramTimeout);
 752:src/Libraries/STM32F10x_StdPeriph_Driver/src/stm32f10x_flash.c **** 
 753:src/Libraries/STM32F10x_StdPeriph_Driver/src/stm32f10x_flash.c ****     if(status == FLASH_COMPLETE)
 754:src/Libraries/STM32F10x_StdPeriph_Driver/src/stm32f10x_flash.c ****     {
 755:src/Libraries/STM32F10x_StdPeriph_Driver/src/stm32f10x_flash.c ****       /* if the previous operation is completed, proceed to program the new second 
 756:src/Libraries/STM32F10x_StdPeriph_Driver/src/stm32f10x_flash.c ****       half word */
 757:src/Libraries/STM32F10x_StdPeriph_Driver/src/stm32f10x_flash.c ****       FLASH->CR2 |= CR_PG_Set;
 758:src/Libraries/STM32F10x_StdPeriph_Driver/src/stm32f10x_flash.c ****       tmp = Address + 2;
 759:src/Libraries/STM32F10x_StdPeriph_Driver/src/stm32f10x_flash.c **** 
 760:src/Libraries/STM32F10x_StdPeriph_Driver/src/stm32f10x_flash.c ****       *(__IO uint16_t*) tmp = Data >> 16;
 761:src/Libraries/STM32F10x_StdPeriph_Driver/src/stm32f10x_flash.c ****     
 762:src/Libraries/STM32F10x_StdPeriph_Driver/src/stm32f10x_flash.c ****       /* Wait for last operation to be completed */
 763:src/Libraries/STM32F10x_StdPeriph_Driver/src/stm32f10x_flash.c ****       status = FLASH_WaitForLastBank2Operation(ProgramTimeout);
 764:src/Libraries/STM32F10x_StdPeriph_Driver/src/stm32f10x_flash.c ****         
 765:src/Libraries/STM32F10x_StdPeriph_Driver/src/stm32f10x_flash.c ****       /* Disable the PG Bit */
 766:src/Libraries/STM32F10x_StdPeriph_Driver/src/stm32f10x_flash.c ****       FLASH->CR2 &= CR_PG_Reset;
 767:src/Libraries/STM32F10x_StdPeriph_Driver/src/stm32f10x_flash.c ****     }
 768:src/Libraries/STM32F10x_StdPeriph_Driver/src/stm32f10x_flash.c ****     else
 769:src/Libraries/STM32F10x_StdPeriph_Driver/src/stm32f10x_flash.c ****     {
 770:src/Libraries/STM32F10x_StdPeriph_Driver/src/stm32f10x_flash.c ****       /* Disable the PG Bit */
ARM GAS  C:\Users\dell\AppData\Local\Temp\ccqOk9Jh.s 			page 19


 771:src/Libraries/STM32F10x_StdPeriph_Driver/src/stm32f10x_flash.c ****       FLASH->CR2 &= CR_PG_Reset;
 772:src/Libraries/STM32F10x_StdPeriph_Driver/src/stm32f10x_flash.c ****     }
 773:src/Libraries/STM32F10x_StdPeriph_Driver/src/stm32f10x_flash.c ****   }
 774:src/Libraries/STM32F10x_StdPeriph_Driver/src/stm32f10x_flash.c ****   else
 775:src/Libraries/STM32F10x_StdPeriph_Driver/src/stm32f10x_flash.c ****   {
 776:src/Libraries/STM32F10x_StdPeriph_Driver/src/stm32f10x_flash.c ****     /* Wait for last operation to be completed */
 777:src/Libraries/STM32F10x_StdPeriph_Driver/src/stm32f10x_flash.c ****     status = FLASH_WaitForLastBank2Operation(ProgramTimeout);
 778:src/Libraries/STM32F10x_StdPeriph_Driver/src/stm32f10x_flash.c **** 
 779:src/Libraries/STM32F10x_StdPeriph_Driver/src/stm32f10x_flash.c ****     if(status == FLASH_COMPLETE)
 780:src/Libraries/STM32F10x_StdPeriph_Driver/src/stm32f10x_flash.c ****     {
 781:src/Libraries/STM32F10x_StdPeriph_Driver/src/stm32f10x_flash.c ****       /* if the previous operation is completed, proceed to program the new first 
 782:src/Libraries/STM32F10x_StdPeriph_Driver/src/stm32f10x_flash.c ****         half word */
 783:src/Libraries/STM32F10x_StdPeriph_Driver/src/stm32f10x_flash.c ****       FLASH->CR2 |= CR_PG_Set;
 784:src/Libraries/STM32F10x_StdPeriph_Driver/src/stm32f10x_flash.c ****   
 785:src/Libraries/STM32F10x_StdPeriph_Driver/src/stm32f10x_flash.c ****       *(__IO uint16_t*)Address = (uint16_t)Data;
 786:src/Libraries/STM32F10x_StdPeriph_Driver/src/stm32f10x_flash.c ****       /* Wait for last operation to be completed */
 787:src/Libraries/STM32F10x_StdPeriph_Driver/src/stm32f10x_flash.c ****       status = FLASH_WaitForLastBank2Operation(ProgramTimeout);
 788:src/Libraries/STM32F10x_StdPeriph_Driver/src/stm32f10x_flash.c ****  
 789:src/Libraries/STM32F10x_StdPeriph_Driver/src/stm32f10x_flash.c ****       if(status == FLASH_COMPLETE)
 790:src/Libraries/STM32F10x_StdPeriph_Driver/src/stm32f10x_flash.c ****       {
 791:src/Libraries/STM32F10x_StdPeriph_Driver/src/stm32f10x_flash.c ****         /* if the previous operation is completed, proceed to program the new second 
 792:src/Libraries/STM32F10x_StdPeriph_Driver/src/stm32f10x_flash.c ****         half word */
 793:src/Libraries/STM32F10x_StdPeriph_Driver/src/stm32f10x_flash.c ****         tmp = Address + 2;
 794:src/Libraries/STM32F10x_StdPeriph_Driver/src/stm32f10x_flash.c **** 
 795:src/Libraries/STM32F10x_StdPeriph_Driver/src/stm32f10x_flash.c ****         *(__IO uint16_t*) tmp = Data >> 16;
 796:src/Libraries/STM32F10x_StdPeriph_Driver/src/stm32f10x_flash.c ****     
 797:src/Libraries/STM32F10x_StdPeriph_Driver/src/stm32f10x_flash.c ****         /* Wait for last operation to be completed */
 798:src/Libraries/STM32F10x_StdPeriph_Driver/src/stm32f10x_flash.c ****         status = FLASH_WaitForLastBank2Operation(ProgramTimeout);
 799:src/Libraries/STM32F10x_StdPeriph_Driver/src/stm32f10x_flash.c ****         
 800:src/Libraries/STM32F10x_StdPeriph_Driver/src/stm32f10x_flash.c ****         /* Disable the PG Bit */
 801:src/Libraries/STM32F10x_StdPeriph_Driver/src/stm32f10x_flash.c ****         FLASH->CR2 &= CR_PG_Reset;
 802:src/Libraries/STM32F10x_StdPeriph_Driver/src/stm32f10x_flash.c ****       }
 803:src/Libraries/STM32F10x_StdPeriph_Driver/src/stm32f10x_flash.c ****       else
 804:src/Libraries/STM32F10x_StdPeriph_Driver/src/stm32f10x_flash.c ****       {
 805:src/Libraries/STM32F10x_StdPeriph_Driver/src/stm32f10x_flash.c ****         /* Disable the PG Bit */
 806:src/Libraries/STM32F10x_StdPeriph_Driver/src/stm32f10x_flash.c ****         FLASH->CR2 &= CR_PG_Reset;
 807:src/Libraries/STM32F10x_StdPeriph_Driver/src/stm32f10x_flash.c ****       }
 808:src/Libraries/STM32F10x_StdPeriph_Driver/src/stm32f10x_flash.c ****     }
 809:src/Libraries/STM32F10x_StdPeriph_Driver/src/stm32f10x_flash.c ****   }
 810:src/Libraries/STM32F10x_StdPeriph_Driver/src/stm32f10x_flash.c **** #else
 811:src/Libraries/STM32F10x_StdPeriph_Driver/src/stm32f10x_flash.c ****   /* Wait for last operation to be completed */
 812:src/Libraries/STM32F10x_StdPeriph_Driver/src/stm32f10x_flash.c ****   status = FLASH_WaitForLastOperation(ProgramTimeout);
 813:src/Libraries/STM32F10x_StdPeriph_Driver/src/stm32f10x_flash.c ****   
 814:src/Libraries/STM32F10x_StdPeriph_Driver/src/stm32f10x_flash.c ****   if(status == FLASH_COMPLETE)
 815:src/Libraries/STM32F10x_StdPeriph_Driver/src/stm32f10x_flash.c ****   {
 816:src/Libraries/STM32F10x_StdPeriph_Driver/src/stm32f10x_flash.c ****     /* if the previous operation is completed, proceed to program the new first 
 817:src/Libraries/STM32F10x_StdPeriph_Driver/src/stm32f10x_flash.c ****     half word */
 818:src/Libraries/STM32F10x_StdPeriph_Driver/src/stm32f10x_flash.c ****     FLASH->CR |= CR_PG_Set;
 819:src/Libraries/STM32F10x_StdPeriph_Driver/src/stm32f10x_flash.c ****   
 820:src/Libraries/STM32F10x_StdPeriph_Driver/src/stm32f10x_flash.c ****     *(__IO uint16_t*)Address = (uint16_t)Data;
 821:src/Libraries/STM32F10x_StdPeriph_Driver/src/stm32f10x_flash.c ****     /* Wait for last operation to be completed */
 822:src/Libraries/STM32F10x_StdPeriph_Driver/src/stm32f10x_flash.c ****     status = FLASH_WaitForLastOperation(ProgramTimeout);
 823:src/Libraries/STM32F10x_StdPeriph_Driver/src/stm32f10x_flash.c ****  
 824:src/Libraries/STM32F10x_StdPeriph_Driver/src/stm32f10x_flash.c ****     if(status == FLASH_COMPLETE)
 825:src/Libraries/STM32F10x_StdPeriph_Driver/src/stm32f10x_flash.c ****     {
 826:src/Libraries/STM32F10x_StdPeriph_Driver/src/stm32f10x_flash.c ****       /* if the previous operation is completed, proceed to program the new second 
 827:src/Libraries/STM32F10x_StdPeriph_Driver/src/stm32f10x_flash.c ****       half word */
ARM GAS  C:\Users\dell\AppData\Local\Temp\ccqOk9Jh.s 			page 20


 828:src/Libraries/STM32F10x_StdPeriph_Driver/src/stm32f10x_flash.c ****       tmp = Address + 2;
 829:src/Libraries/STM32F10x_StdPeriph_Driver/src/stm32f10x_flash.c **** 
 830:src/Libraries/STM32F10x_StdPeriph_Driver/src/stm32f10x_flash.c ****       *(__IO uint16_t*) tmp = Data >> 16;
 831:src/Libraries/STM32F10x_StdPeriph_Driver/src/stm32f10x_flash.c ****     
 832:src/Libraries/STM32F10x_StdPeriph_Driver/src/stm32f10x_flash.c ****       /* Wait for last operation to be completed */
 833:src/Libraries/STM32F10x_StdPeriph_Driver/src/stm32f10x_flash.c ****       status = FLASH_WaitForLastOperation(ProgramTimeout);
 834:src/Libraries/STM32F10x_StdPeriph_Driver/src/stm32f10x_flash.c ****         
 835:src/Libraries/STM32F10x_StdPeriph_Driver/src/stm32f10x_flash.c ****       /* Disable the PG Bit */
 836:src/Libraries/STM32F10x_StdPeriph_Driver/src/stm32f10x_flash.c ****       FLASH->CR &= CR_PG_Reset;
 837:src/Libraries/STM32F10x_StdPeriph_Driver/src/stm32f10x_flash.c ****     }
 838:src/Libraries/STM32F10x_StdPeriph_Driver/src/stm32f10x_flash.c ****     else
 839:src/Libraries/STM32F10x_StdPeriph_Driver/src/stm32f10x_flash.c ****     {
 840:src/Libraries/STM32F10x_StdPeriph_Driver/src/stm32f10x_flash.c ****       /* Disable the PG Bit */
 841:src/Libraries/STM32F10x_StdPeriph_Driver/src/stm32f10x_flash.c ****       FLASH->CR &= CR_PG_Reset;
 842:src/Libraries/STM32F10x_StdPeriph_Driver/src/stm32f10x_flash.c ****     }
 843:src/Libraries/STM32F10x_StdPeriph_Driver/src/stm32f10x_flash.c ****   }         
 844:src/Libraries/STM32F10x_StdPeriph_Driver/src/stm32f10x_flash.c **** #endif /* STM32F10X_XL */
 845:src/Libraries/STM32F10x_StdPeriph_Driver/src/stm32f10x_flash.c ****    
 846:src/Libraries/STM32F10x_StdPeriph_Driver/src/stm32f10x_flash.c ****   /* Return the Program Status */
 847:src/Libraries/STM32F10x_StdPeriph_Driver/src/stm32f10x_flash.c ****   return status;
 848:src/Libraries/STM32F10x_StdPeriph_Driver/src/stm32f10x_flash.c **** }
 849:src/Libraries/STM32F10x_StdPeriph_Driver/src/stm32f10x_flash.c **** 
 850:src/Libraries/STM32F10x_StdPeriph_Driver/src/stm32f10x_flash.c **** /**
 851:src/Libraries/STM32F10x_StdPeriph_Driver/src/stm32f10x_flash.c ****   * @brief  Programs a half word at a specified address.
 852:src/Libraries/STM32F10x_StdPeriph_Driver/src/stm32f10x_flash.c ****   * @note   This function can be used for all STM32F10x devices.
 853:src/Libraries/STM32F10x_StdPeriph_Driver/src/stm32f10x_flash.c ****   * @param  Address: specifies the address to be programmed.
 854:src/Libraries/STM32F10x_StdPeriph_Driver/src/stm32f10x_flash.c ****   * @param  Data: specifies the data to be programmed.
 855:src/Libraries/STM32F10x_StdPeriph_Driver/src/stm32f10x_flash.c ****   * @retval FLASH Status: The returned value can be: FLASH_ERROR_PG,
 856:src/Libraries/STM32F10x_StdPeriph_Driver/src/stm32f10x_flash.c ****   *         FLASH_ERROR_WRP, FLASH_COMPLETE or FLASH_TIMEOUT. 
 857:src/Libraries/STM32F10x_StdPeriph_Driver/src/stm32f10x_flash.c ****   */
 858:src/Libraries/STM32F10x_StdPeriph_Driver/src/stm32f10x_flash.c **** FLASH_Status FLASH_ProgramHalfWord(uint32_t Address, uint16_t Data)
 859:src/Libraries/STM32F10x_StdPeriph_Driver/src/stm32f10x_flash.c **** {
 860:src/Libraries/STM32F10x_StdPeriph_Driver/src/stm32f10x_flash.c ****   FLASH_Status status = FLASH_COMPLETE;
 861:src/Libraries/STM32F10x_StdPeriph_Driver/src/stm32f10x_flash.c ****   /* Check the parameters */
 862:src/Libraries/STM32F10x_StdPeriph_Driver/src/stm32f10x_flash.c ****   assert_param(IS_FLASH_ADDRESS(Address));
 863:src/Libraries/STM32F10x_StdPeriph_Driver/src/stm32f10x_flash.c **** 
 864:src/Libraries/STM32F10x_StdPeriph_Driver/src/stm32f10x_flash.c **** #ifdef STM32F10X_XL
 865:src/Libraries/STM32F10x_StdPeriph_Driver/src/stm32f10x_flash.c ****   /* Wait for last operation to be completed */
 866:src/Libraries/STM32F10x_StdPeriph_Driver/src/stm32f10x_flash.c ****   status = FLASH_WaitForLastOperation(ProgramTimeout);
 867:src/Libraries/STM32F10x_StdPeriph_Driver/src/stm32f10x_flash.c ****   
 868:src/Libraries/STM32F10x_StdPeriph_Driver/src/stm32f10x_flash.c ****   if(Address < FLASH_BANK1_END_ADDRESS)
 869:src/Libraries/STM32F10x_StdPeriph_Driver/src/stm32f10x_flash.c ****   {
 870:src/Libraries/STM32F10x_StdPeriph_Driver/src/stm32f10x_flash.c ****     if(status == FLASH_COMPLETE)
 871:src/Libraries/STM32F10x_StdPeriph_Driver/src/stm32f10x_flash.c ****     {
 872:src/Libraries/STM32F10x_StdPeriph_Driver/src/stm32f10x_flash.c ****       /* if the previous operation is completed, proceed to program the new data */
 873:src/Libraries/STM32F10x_StdPeriph_Driver/src/stm32f10x_flash.c ****       FLASH->CR |= CR_PG_Set;
 874:src/Libraries/STM32F10x_StdPeriph_Driver/src/stm32f10x_flash.c ****   
 875:src/Libraries/STM32F10x_StdPeriph_Driver/src/stm32f10x_flash.c ****       *(__IO uint16_t*)Address = Data;
 876:src/Libraries/STM32F10x_StdPeriph_Driver/src/stm32f10x_flash.c ****       /* Wait for last operation to be completed */
 877:src/Libraries/STM32F10x_StdPeriph_Driver/src/stm32f10x_flash.c ****       status = FLASH_WaitForLastBank1Operation(ProgramTimeout);
 878:src/Libraries/STM32F10x_StdPeriph_Driver/src/stm32f10x_flash.c **** 
 879:src/Libraries/STM32F10x_StdPeriph_Driver/src/stm32f10x_flash.c ****       /* Disable the PG Bit */
 880:src/Libraries/STM32F10x_StdPeriph_Driver/src/stm32f10x_flash.c ****       FLASH->CR &= CR_PG_Reset;
 881:src/Libraries/STM32F10x_StdPeriph_Driver/src/stm32f10x_flash.c ****     }
 882:src/Libraries/STM32F10x_StdPeriph_Driver/src/stm32f10x_flash.c ****   }
 883:src/Libraries/STM32F10x_StdPeriph_Driver/src/stm32f10x_flash.c ****   else
 884:src/Libraries/STM32F10x_StdPeriph_Driver/src/stm32f10x_flash.c ****   {
ARM GAS  C:\Users\dell\AppData\Local\Temp\ccqOk9Jh.s 			page 21


 885:src/Libraries/STM32F10x_StdPeriph_Driver/src/stm32f10x_flash.c ****     if(status == FLASH_COMPLETE)
 886:src/Libraries/STM32F10x_StdPeriph_Driver/src/stm32f10x_flash.c ****     {
 887:src/Libraries/STM32F10x_StdPeriph_Driver/src/stm32f10x_flash.c ****       /* if the previous operation is completed, proceed to program the new data */
 888:src/Libraries/STM32F10x_StdPeriph_Driver/src/stm32f10x_flash.c ****       FLASH->CR2 |= CR_PG_Set;
 889:src/Libraries/STM32F10x_StdPeriph_Driver/src/stm32f10x_flash.c ****   
 890:src/Libraries/STM32F10x_StdPeriph_Driver/src/stm32f10x_flash.c ****       *(__IO uint16_t*)Address = Data;
 891:src/Libraries/STM32F10x_StdPeriph_Driver/src/stm32f10x_flash.c ****       /* Wait for last operation to be completed */
 892:src/Libraries/STM32F10x_StdPeriph_Driver/src/stm32f10x_flash.c ****       status = FLASH_WaitForLastBank2Operation(ProgramTimeout);
 893:src/Libraries/STM32F10x_StdPeriph_Driver/src/stm32f10x_flash.c **** 
 894:src/Libraries/STM32F10x_StdPeriph_Driver/src/stm32f10x_flash.c ****       /* Disable the PG Bit */
 895:src/Libraries/STM32F10x_StdPeriph_Driver/src/stm32f10x_flash.c ****       FLASH->CR2 &= CR_PG_Reset;
 896:src/Libraries/STM32F10x_StdPeriph_Driver/src/stm32f10x_flash.c ****     }
 897:src/Libraries/STM32F10x_StdPeriph_Driver/src/stm32f10x_flash.c ****   }
 898:src/Libraries/STM32F10x_StdPeriph_Driver/src/stm32f10x_flash.c **** #else
 899:src/Libraries/STM32F10x_StdPeriph_Driver/src/stm32f10x_flash.c ****   /* Wait for last operation to be completed */
 900:src/Libraries/STM32F10x_StdPeriph_Driver/src/stm32f10x_flash.c ****   status = FLASH_WaitForLastOperation(ProgramTimeout);
 901:src/Libraries/STM32F10x_StdPeriph_Driver/src/stm32f10x_flash.c ****   
 902:src/Libraries/STM32F10x_StdPeriph_Driver/src/stm32f10x_flash.c ****   if(status == FLASH_COMPLETE)
 903:src/Libraries/STM32F10x_StdPeriph_Driver/src/stm32f10x_flash.c ****   {
 904:src/Libraries/STM32F10x_StdPeriph_Driver/src/stm32f10x_flash.c ****     /* if the previous operation is completed, proceed to program the new data */
 905:src/Libraries/STM32F10x_StdPeriph_Driver/src/stm32f10x_flash.c ****     FLASH->CR |= CR_PG_Set;
 906:src/Libraries/STM32F10x_StdPeriph_Driver/src/stm32f10x_flash.c ****   
 907:src/Libraries/STM32F10x_StdPeriph_Driver/src/stm32f10x_flash.c ****     *(__IO uint16_t*)Address = Data;
 908:src/Libraries/STM32F10x_StdPeriph_Driver/src/stm32f10x_flash.c ****     /* Wait for last operation to be completed */
 909:src/Libraries/STM32F10x_StdPeriph_Driver/src/stm32f10x_flash.c ****     status = FLASH_WaitForLastOperation(ProgramTimeout);
 910:src/Libraries/STM32F10x_StdPeriph_Driver/src/stm32f10x_flash.c ****     
 911:src/Libraries/STM32F10x_StdPeriph_Driver/src/stm32f10x_flash.c ****     /* Disable the PG Bit */
 912:src/Libraries/STM32F10x_StdPeriph_Driver/src/stm32f10x_flash.c ****     FLASH->CR &= CR_PG_Reset;
 913:src/Libraries/STM32F10x_StdPeriph_Driver/src/stm32f10x_flash.c ****   } 
 914:src/Libraries/STM32F10x_StdPeriph_Driver/src/stm32f10x_flash.c **** #endif  /* STM32F10X_XL */
 915:src/Libraries/STM32F10x_StdPeriph_Driver/src/stm32f10x_flash.c ****   
 916:src/Libraries/STM32F10x_StdPeriph_Driver/src/stm32f10x_flash.c ****   /* Return the Program Status */
 917:src/Libraries/STM32F10x_StdPeriph_Driver/src/stm32f10x_flash.c ****   return status;
 918:src/Libraries/STM32F10x_StdPeriph_Driver/src/stm32f10x_flash.c **** }
 919:src/Libraries/STM32F10x_StdPeriph_Driver/src/stm32f10x_flash.c **** 
 920:src/Libraries/STM32F10x_StdPeriph_Driver/src/stm32f10x_flash.c **** /**
 921:src/Libraries/STM32F10x_StdPeriph_Driver/src/stm32f10x_flash.c ****   * @brief  Programs a half word at a specified Option Byte Data address.
 922:src/Libraries/STM32F10x_StdPeriph_Driver/src/stm32f10x_flash.c ****   * @note   This function can be used for all STM32F10x devices.
 923:src/Libraries/STM32F10x_StdPeriph_Driver/src/stm32f10x_flash.c ****   * @param  Address: specifies the address to be programmed.
 924:src/Libraries/STM32F10x_StdPeriph_Driver/src/stm32f10x_flash.c ****   *   This parameter can be 0x1FFFF804 or 0x1FFFF806. 
 925:src/Libraries/STM32F10x_StdPeriph_Driver/src/stm32f10x_flash.c ****   * @param  Data: specifies the data to be programmed.
 926:src/Libraries/STM32F10x_StdPeriph_Driver/src/stm32f10x_flash.c ****   * @retval FLASH Status: The returned value can be: FLASH_ERROR_PG,
 927:src/Libraries/STM32F10x_StdPeriph_Driver/src/stm32f10x_flash.c ****   *         FLASH_ERROR_WRP, FLASH_COMPLETE or FLASH_TIMEOUT. 
 928:src/Libraries/STM32F10x_StdPeriph_Driver/src/stm32f10x_flash.c ****   */
 929:src/Libraries/STM32F10x_StdPeriph_Driver/src/stm32f10x_flash.c **** FLASH_Status FLASH_ProgramOptionByteData(uint32_t Address, uint8_t Data)
 930:src/Libraries/STM32F10x_StdPeriph_Driver/src/stm32f10x_flash.c **** {
 931:src/Libraries/STM32F10x_StdPeriph_Driver/src/stm32f10x_flash.c ****   FLASH_Status status = FLASH_COMPLETE;
 932:src/Libraries/STM32F10x_StdPeriph_Driver/src/stm32f10x_flash.c ****   /* Check the parameters */
 933:src/Libraries/STM32F10x_StdPeriph_Driver/src/stm32f10x_flash.c ****   assert_param(IS_OB_DATA_ADDRESS(Address));
 934:src/Libraries/STM32F10x_StdPeriph_Driver/src/stm32f10x_flash.c ****   status = FLASH_WaitForLastOperation(ProgramTimeout);
 935:src/Libraries/STM32F10x_StdPeriph_Driver/src/stm32f10x_flash.c **** 
 936:src/Libraries/STM32F10x_StdPeriph_Driver/src/stm32f10x_flash.c ****   if(status == FLASH_COMPLETE)
 937:src/Libraries/STM32F10x_StdPeriph_Driver/src/stm32f10x_flash.c ****   {
 938:src/Libraries/STM32F10x_StdPeriph_Driver/src/stm32f10x_flash.c ****     /* Authorize the small information block programming */
 939:src/Libraries/STM32F10x_StdPeriph_Driver/src/stm32f10x_flash.c ****     FLASH->OPTKEYR = FLASH_KEY1;
 940:src/Libraries/STM32F10x_StdPeriph_Driver/src/stm32f10x_flash.c ****     FLASH->OPTKEYR = FLASH_KEY2;
 941:src/Libraries/STM32F10x_StdPeriph_Driver/src/stm32f10x_flash.c ****     /* Enables the Option Bytes Programming operation */
ARM GAS  C:\Users\dell\AppData\Local\Temp\ccqOk9Jh.s 			page 22


 942:src/Libraries/STM32F10x_StdPeriph_Driver/src/stm32f10x_flash.c ****     FLASH->CR |= CR_OPTPG_Set; 
 943:src/Libraries/STM32F10x_StdPeriph_Driver/src/stm32f10x_flash.c ****     *(__IO uint16_t*)Address = Data;
 944:src/Libraries/STM32F10x_StdPeriph_Driver/src/stm32f10x_flash.c ****     
 945:src/Libraries/STM32F10x_StdPeriph_Driver/src/stm32f10x_flash.c ****     /* Wait for last operation to be completed */
 946:src/Libraries/STM32F10x_StdPeriph_Driver/src/stm32f10x_flash.c ****     status = FLASH_WaitForLastOperation(ProgramTimeout);
 947:src/Libraries/STM32F10x_StdPeriph_Driver/src/stm32f10x_flash.c ****     if(status != FLASH_TIMEOUT)
 948:src/Libraries/STM32F10x_StdPeriph_Driver/src/stm32f10x_flash.c ****     {
 949:src/Libraries/STM32F10x_StdPeriph_Driver/src/stm32f10x_flash.c ****       /* if the program operation is completed, disable the OPTPG Bit */
 950:src/Libraries/STM32F10x_StdPeriph_Driver/src/stm32f10x_flash.c ****       FLASH->CR &= CR_OPTPG_Reset;
 951:src/Libraries/STM32F10x_StdPeriph_Driver/src/stm32f10x_flash.c ****     }
 952:src/Libraries/STM32F10x_StdPeriph_Driver/src/stm32f10x_flash.c ****   }
 953:src/Libraries/STM32F10x_StdPeriph_Driver/src/stm32f10x_flash.c ****   /* Return the Option Byte Data Program Status */
 954:src/Libraries/STM32F10x_StdPeriph_Driver/src/stm32f10x_flash.c ****   return status;
 955:src/Libraries/STM32F10x_StdPeriph_Driver/src/stm32f10x_flash.c **** }
 956:src/Libraries/STM32F10x_StdPeriph_Driver/src/stm32f10x_flash.c **** 
 957:src/Libraries/STM32F10x_StdPeriph_Driver/src/stm32f10x_flash.c **** /**
 958:src/Libraries/STM32F10x_StdPeriph_Driver/src/stm32f10x_flash.c ****   * @brief  Write protects the desired pages
 959:src/Libraries/STM32F10x_StdPeriph_Driver/src/stm32f10x_flash.c ****   * @note   This function can be used for all STM32F10x devices.
 960:src/Libraries/STM32F10x_StdPeriph_Driver/src/stm32f10x_flash.c ****   * @param  FLASH_Pages: specifies the address of the pages to be write protected.
 961:src/Libraries/STM32F10x_StdPeriph_Driver/src/stm32f10x_flash.c ****   *   This parameter can be:
 962:src/Libraries/STM32F10x_StdPeriph_Driver/src/stm32f10x_flash.c ****   *     @arg For @b STM32_Low-density_devices: value between FLASH_WRProt_Pages0to3 and FLASH_WRPro
 963:src/Libraries/STM32F10x_StdPeriph_Driver/src/stm32f10x_flash.c ****   *     @arg For @b STM32_Medium-density_devices: value between FLASH_WRProt_Pages0to3
 964:src/Libraries/STM32F10x_StdPeriph_Driver/src/stm32f10x_flash.c ****   *       and FLASH_WRProt_Pages124to127
 965:src/Libraries/STM32F10x_StdPeriph_Driver/src/stm32f10x_flash.c ****   *     @arg For @b STM32_High-density_devices: value between FLASH_WRProt_Pages0to1 and
 966:src/Libraries/STM32F10x_StdPeriph_Driver/src/stm32f10x_flash.c ****   *       FLASH_WRProt_Pages60to61 or FLASH_WRProt_Pages62to255
 967:src/Libraries/STM32F10x_StdPeriph_Driver/src/stm32f10x_flash.c ****   *     @arg For @b STM32_Connectivity_line_devices: value between FLASH_WRProt_Pages0to1 and
 968:src/Libraries/STM32F10x_StdPeriph_Driver/src/stm32f10x_flash.c ****   *       FLASH_WRProt_Pages60to61 or FLASH_WRProt_Pages62to127    
 969:src/Libraries/STM32F10x_StdPeriph_Driver/src/stm32f10x_flash.c ****   *     @arg For @b STM32_XL-density_devices: value between FLASH_WRProt_Pages0to1 and
 970:src/Libraries/STM32F10x_StdPeriph_Driver/src/stm32f10x_flash.c ****   *       FLASH_WRProt_Pages60to61 or FLASH_WRProt_Pages62to511
 971:src/Libraries/STM32F10x_StdPeriph_Driver/src/stm32f10x_flash.c ****   *     @arg FLASH_WRProt_AllPages
 972:src/Libraries/STM32F10x_StdPeriph_Driver/src/stm32f10x_flash.c ****   * @retval FLASH Status: The returned value can be: FLASH_ERROR_PG,
 973:src/Libraries/STM32F10x_StdPeriph_Driver/src/stm32f10x_flash.c ****   *         FLASH_ERROR_WRP, FLASH_COMPLETE or FLASH_TIMEOUT.
 974:src/Libraries/STM32F10x_StdPeriph_Driver/src/stm32f10x_flash.c ****   */
 975:src/Libraries/STM32F10x_StdPeriph_Driver/src/stm32f10x_flash.c **** FLASH_Status FLASH_EnableWriteProtection(uint32_t FLASH_Pages)
 976:src/Libraries/STM32F10x_StdPeriph_Driver/src/stm32f10x_flash.c **** {
 977:src/Libraries/STM32F10x_StdPeriph_Driver/src/stm32f10x_flash.c ****   uint16_t WRP0_Data = 0xFFFF, WRP1_Data = 0xFFFF, WRP2_Data = 0xFFFF, WRP3_Data = 0xFFFF;
 978:src/Libraries/STM32F10x_StdPeriph_Driver/src/stm32f10x_flash.c ****   
 979:src/Libraries/STM32F10x_StdPeriph_Driver/src/stm32f10x_flash.c ****   FLASH_Status status = FLASH_COMPLETE;
 980:src/Libraries/STM32F10x_StdPeriph_Driver/src/stm32f10x_flash.c ****   
 981:src/Libraries/STM32F10x_StdPeriph_Driver/src/stm32f10x_flash.c ****   /* Check the parameters */
 982:src/Libraries/STM32F10x_StdPeriph_Driver/src/stm32f10x_flash.c ****   assert_param(IS_FLASH_WRPROT_PAGE(FLASH_Pages));
 983:src/Libraries/STM32F10x_StdPeriph_Driver/src/stm32f10x_flash.c ****   
 984:src/Libraries/STM32F10x_StdPeriph_Driver/src/stm32f10x_flash.c ****   FLASH_Pages = (uint32_t)(~FLASH_Pages);
 985:src/Libraries/STM32F10x_StdPeriph_Driver/src/stm32f10x_flash.c ****   WRP0_Data = (uint16_t)(FLASH_Pages & WRP0_Mask);
 986:src/Libraries/STM32F10x_StdPeriph_Driver/src/stm32f10x_flash.c ****   WRP1_Data = (uint16_t)((FLASH_Pages & WRP1_Mask) >> 8);
 987:src/Libraries/STM32F10x_StdPeriph_Driver/src/stm32f10x_flash.c ****   WRP2_Data = (uint16_t)((FLASH_Pages & WRP2_Mask) >> 16);
 988:src/Libraries/STM32F10x_StdPeriph_Driver/src/stm32f10x_flash.c ****   WRP3_Data = (uint16_t)((FLASH_Pages & WRP3_Mask) >> 24);
 989:src/Libraries/STM32F10x_StdPeriph_Driver/src/stm32f10x_flash.c ****   
 990:src/Libraries/STM32F10x_StdPeriph_Driver/src/stm32f10x_flash.c ****   /* Wait for last operation to be completed */
 991:src/Libraries/STM32F10x_StdPeriph_Driver/src/stm32f10x_flash.c ****   status = FLASH_WaitForLastOperation(ProgramTimeout);
 992:src/Libraries/STM32F10x_StdPeriph_Driver/src/stm32f10x_flash.c ****   
 993:src/Libraries/STM32F10x_StdPeriph_Driver/src/stm32f10x_flash.c ****   if(status == FLASH_COMPLETE)
 994:src/Libraries/STM32F10x_StdPeriph_Driver/src/stm32f10x_flash.c ****   {
 995:src/Libraries/STM32F10x_StdPeriph_Driver/src/stm32f10x_flash.c ****     /* Authorizes the small information block programming */
 996:src/Libraries/STM32F10x_StdPeriph_Driver/src/stm32f10x_flash.c ****     FLASH->OPTKEYR = FLASH_KEY1;
 997:src/Libraries/STM32F10x_StdPeriph_Driver/src/stm32f10x_flash.c ****     FLASH->OPTKEYR = FLASH_KEY2;
 998:src/Libraries/STM32F10x_StdPeriph_Driver/src/stm32f10x_flash.c ****     FLASH->CR |= CR_OPTPG_Set;
ARM GAS  C:\Users\dell\AppData\Local\Temp\ccqOk9Jh.s 			page 23


 999:src/Libraries/STM32F10x_StdPeriph_Driver/src/stm32f10x_flash.c ****     if(WRP0_Data != 0xFF)
1000:src/Libraries/STM32F10x_StdPeriph_Driver/src/stm32f10x_flash.c ****     {
1001:src/Libraries/STM32F10x_StdPeriph_Driver/src/stm32f10x_flash.c ****       OB->WRP0 = WRP0_Data;
1002:src/Libraries/STM32F10x_StdPeriph_Driver/src/stm32f10x_flash.c ****       
1003:src/Libraries/STM32F10x_StdPeriph_Driver/src/stm32f10x_flash.c ****       /* Wait for last operation to be completed */
1004:src/Libraries/STM32F10x_StdPeriph_Driver/src/stm32f10x_flash.c ****       status = FLASH_WaitForLastOperation(ProgramTimeout);
1005:src/Libraries/STM32F10x_StdPeriph_Driver/src/stm32f10x_flash.c ****     }
1006:src/Libraries/STM32F10x_StdPeriph_Driver/src/stm32f10x_flash.c ****     if((status == FLASH_COMPLETE) && (WRP1_Data != 0xFF))
1007:src/Libraries/STM32F10x_StdPeriph_Driver/src/stm32f10x_flash.c ****     {
1008:src/Libraries/STM32F10x_StdPeriph_Driver/src/stm32f10x_flash.c ****       OB->WRP1 = WRP1_Data;
1009:src/Libraries/STM32F10x_StdPeriph_Driver/src/stm32f10x_flash.c ****       
1010:src/Libraries/STM32F10x_StdPeriph_Driver/src/stm32f10x_flash.c ****       /* Wait for last operation to be completed */
1011:src/Libraries/STM32F10x_StdPeriph_Driver/src/stm32f10x_flash.c ****       status = FLASH_WaitForLastOperation(ProgramTimeout);
1012:src/Libraries/STM32F10x_StdPeriph_Driver/src/stm32f10x_flash.c ****     }
1013:src/Libraries/STM32F10x_StdPeriph_Driver/src/stm32f10x_flash.c ****     if((status == FLASH_COMPLETE) && (WRP2_Data != 0xFF))
1014:src/Libraries/STM32F10x_StdPeriph_Driver/src/stm32f10x_flash.c ****     {
1015:src/Libraries/STM32F10x_StdPeriph_Driver/src/stm32f10x_flash.c ****       OB->WRP2 = WRP2_Data;
1016:src/Libraries/STM32F10x_StdPeriph_Driver/src/stm32f10x_flash.c ****       
1017:src/Libraries/STM32F10x_StdPeriph_Driver/src/stm32f10x_flash.c ****       /* Wait for last operation to be completed */
1018:src/Libraries/STM32F10x_StdPeriph_Driver/src/stm32f10x_flash.c ****       status = FLASH_WaitForLastOperation(ProgramTimeout);
1019:src/Libraries/STM32F10x_StdPeriph_Driver/src/stm32f10x_flash.c ****     }
1020:src/Libraries/STM32F10x_StdPeriph_Driver/src/stm32f10x_flash.c ****     
1021:src/Libraries/STM32F10x_StdPeriph_Driver/src/stm32f10x_flash.c ****     if((status == FLASH_COMPLETE)&& (WRP3_Data != 0xFF))
1022:src/Libraries/STM32F10x_StdPeriph_Driver/src/stm32f10x_flash.c ****     {
1023:src/Libraries/STM32F10x_StdPeriph_Driver/src/stm32f10x_flash.c ****       OB->WRP3 = WRP3_Data;
1024:src/Libraries/STM32F10x_StdPeriph_Driver/src/stm32f10x_flash.c ****      
1025:src/Libraries/STM32F10x_StdPeriph_Driver/src/stm32f10x_flash.c ****       /* Wait for last operation to be completed */
1026:src/Libraries/STM32F10x_StdPeriph_Driver/src/stm32f10x_flash.c ****       status = FLASH_WaitForLastOperation(ProgramTimeout);
1027:src/Libraries/STM32F10x_StdPeriph_Driver/src/stm32f10x_flash.c ****     }
1028:src/Libraries/STM32F10x_StdPeriph_Driver/src/stm32f10x_flash.c ****           
1029:src/Libraries/STM32F10x_StdPeriph_Driver/src/stm32f10x_flash.c ****     if(status != FLASH_TIMEOUT)
1030:src/Libraries/STM32F10x_StdPeriph_Driver/src/stm32f10x_flash.c ****     {
1031:src/Libraries/STM32F10x_StdPeriph_Driver/src/stm32f10x_flash.c ****       /* if the program operation is completed, disable the OPTPG Bit */
1032:src/Libraries/STM32F10x_StdPeriph_Driver/src/stm32f10x_flash.c ****       FLASH->CR &= CR_OPTPG_Reset;
1033:src/Libraries/STM32F10x_StdPeriph_Driver/src/stm32f10x_flash.c ****     }
1034:src/Libraries/STM32F10x_StdPeriph_Driver/src/stm32f10x_flash.c ****   } 
1035:src/Libraries/STM32F10x_StdPeriph_Driver/src/stm32f10x_flash.c ****   /* Return the write protection operation Status */
1036:src/Libraries/STM32F10x_StdPeriph_Driver/src/stm32f10x_flash.c ****   return status;       
1037:src/Libraries/STM32F10x_StdPeriph_Driver/src/stm32f10x_flash.c **** }
1038:src/Libraries/STM32F10x_StdPeriph_Driver/src/stm32f10x_flash.c **** 
1039:src/Libraries/STM32F10x_StdPeriph_Driver/src/stm32f10x_flash.c **** /**
1040:src/Libraries/STM32F10x_StdPeriph_Driver/src/stm32f10x_flash.c ****   * @brief  Enables or disables the read out protection.
1041:src/Libraries/STM32F10x_StdPeriph_Driver/src/stm32f10x_flash.c ****   * @note   If the user has already programmed the other option bytes before calling 
1042:src/Libraries/STM32F10x_StdPeriph_Driver/src/stm32f10x_flash.c ****   *   this function, he must re-program them since this function erases all option bytes.
1043:src/Libraries/STM32F10x_StdPeriph_Driver/src/stm32f10x_flash.c ****   * @note   This function can be used for all STM32F10x devices.
1044:src/Libraries/STM32F10x_StdPeriph_Driver/src/stm32f10x_flash.c ****   * @param  Newstate: new state of the ReadOut Protection.
1045:src/Libraries/STM32F10x_StdPeriph_Driver/src/stm32f10x_flash.c ****   *   This parameter can be: ENABLE or DISABLE.
1046:src/Libraries/STM32F10x_StdPeriph_Driver/src/stm32f10x_flash.c ****   * @retval FLASH Status: The returned value can be: FLASH_ERROR_PG,
1047:src/Libraries/STM32F10x_StdPeriph_Driver/src/stm32f10x_flash.c ****   *         FLASH_ERROR_WRP, FLASH_COMPLETE or FLASH_TIMEOUT.
1048:src/Libraries/STM32F10x_StdPeriph_Driver/src/stm32f10x_flash.c ****   */
1049:src/Libraries/STM32F10x_StdPeriph_Driver/src/stm32f10x_flash.c **** FLASH_Status FLASH_ReadOutProtection(FunctionalState NewState)
1050:src/Libraries/STM32F10x_StdPeriph_Driver/src/stm32f10x_flash.c **** {
1051:src/Libraries/STM32F10x_StdPeriph_Driver/src/stm32f10x_flash.c ****   FLASH_Status status = FLASH_COMPLETE;
1052:src/Libraries/STM32F10x_StdPeriph_Driver/src/stm32f10x_flash.c ****   /* Check the parameters */
1053:src/Libraries/STM32F10x_StdPeriph_Driver/src/stm32f10x_flash.c ****   assert_param(IS_FUNCTIONAL_STATE(NewState));
1054:src/Libraries/STM32F10x_StdPeriph_Driver/src/stm32f10x_flash.c ****   status = FLASH_WaitForLastOperation(EraseTimeout);
1055:src/Libraries/STM32F10x_StdPeriph_Driver/src/stm32f10x_flash.c ****   if(status == FLASH_COMPLETE)
ARM GAS  C:\Users\dell\AppData\Local\Temp\ccqOk9Jh.s 			page 24


1056:src/Libraries/STM32F10x_StdPeriph_Driver/src/stm32f10x_flash.c ****   {
1057:src/Libraries/STM32F10x_StdPeriph_Driver/src/stm32f10x_flash.c ****     /* Authorizes the small information block programming */
1058:src/Libraries/STM32F10x_StdPeriph_Driver/src/stm32f10x_flash.c ****     FLASH->OPTKEYR = FLASH_KEY1;
1059:src/Libraries/STM32F10x_StdPeriph_Driver/src/stm32f10x_flash.c ****     FLASH->OPTKEYR = FLASH_KEY2;
1060:src/Libraries/STM32F10x_StdPeriph_Driver/src/stm32f10x_flash.c ****     FLASH->CR |= CR_OPTER_Set;
1061:src/Libraries/STM32F10x_StdPeriph_Driver/src/stm32f10x_flash.c ****     FLASH->CR |= CR_STRT_Set;
1062:src/Libraries/STM32F10x_StdPeriph_Driver/src/stm32f10x_flash.c ****     /* Wait for last operation to be completed */
1063:src/Libraries/STM32F10x_StdPeriph_Driver/src/stm32f10x_flash.c ****     status = FLASH_WaitForLastOperation(EraseTimeout);
1064:src/Libraries/STM32F10x_StdPeriph_Driver/src/stm32f10x_flash.c ****     if(status == FLASH_COMPLETE)
1065:src/Libraries/STM32F10x_StdPeriph_Driver/src/stm32f10x_flash.c ****     {
1066:src/Libraries/STM32F10x_StdPeriph_Driver/src/stm32f10x_flash.c ****       /* if the erase operation is completed, disable the OPTER Bit */
1067:src/Libraries/STM32F10x_StdPeriph_Driver/src/stm32f10x_flash.c ****       FLASH->CR &= CR_OPTER_Reset;
1068:src/Libraries/STM32F10x_StdPeriph_Driver/src/stm32f10x_flash.c ****       /* Enable the Option Bytes Programming operation */
1069:src/Libraries/STM32F10x_StdPeriph_Driver/src/stm32f10x_flash.c ****       FLASH->CR |= CR_OPTPG_Set; 
1070:src/Libraries/STM32F10x_StdPeriph_Driver/src/stm32f10x_flash.c ****       if(NewState != DISABLE)
1071:src/Libraries/STM32F10x_StdPeriph_Driver/src/stm32f10x_flash.c ****       {
1072:src/Libraries/STM32F10x_StdPeriph_Driver/src/stm32f10x_flash.c ****         OB->RDP = 0x00;
1073:src/Libraries/STM32F10x_StdPeriph_Driver/src/stm32f10x_flash.c ****       }
1074:src/Libraries/STM32F10x_StdPeriph_Driver/src/stm32f10x_flash.c ****       else
1075:src/Libraries/STM32F10x_StdPeriph_Driver/src/stm32f10x_flash.c ****       {
1076:src/Libraries/STM32F10x_StdPeriph_Driver/src/stm32f10x_flash.c ****         OB->RDP = RDP_Key;  
1077:src/Libraries/STM32F10x_StdPeriph_Driver/src/stm32f10x_flash.c ****       }
1078:src/Libraries/STM32F10x_StdPeriph_Driver/src/stm32f10x_flash.c ****       /* Wait for last operation to be completed */
1079:src/Libraries/STM32F10x_StdPeriph_Driver/src/stm32f10x_flash.c ****       status = FLASH_WaitForLastOperation(EraseTimeout); 
1080:src/Libraries/STM32F10x_StdPeriph_Driver/src/stm32f10x_flash.c ****     
1081:src/Libraries/STM32F10x_StdPeriph_Driver/src/stm32f10x_flash.c ****       if(status != FLASH_TIMEOUT)
1082:src/Libraries/STM32F10x_StdPeriph_Driver/src/stm32f10x_flash.c ****       {
1083:src/Libraries/STM32F10x_StdPeriph_Driver/src/stm32f10x_flash.c ****         /* if the program operation is completed, disable the OPTPG Bit */
1084:src/Libraries/STM32F10x_StdPeriph_Driver/src/stm32f10x_flash.c ****         FLASH->CR &= CR_OPTPG_Reset;
1085:src/Libraries/STM32F10x_StdPeriph_Driver/src/stm32f10x_flash.c ****       }
1086:src/Libraries/STM32F10x_StdPeriph_Driver/src/stm32f10x_flash.c ****     }
1087:src/Libraries/STM32F10x_StdPeriph_Driver/src/stm32f10x_flash.c ****     else 
1088:src/Libraries/STM32F10x_StdPeriph_Driver/src/stm32f10x_flash.c ****     {
1089:src/Libraries/STM32F10x_StdPeriph_Driver/src/stm32f10x_flash.c ****       if(status != FLASH_TIMEOUT)
1090:src/Libraries/STM32F10x_StdPeriph_Driver/src/stm32f10x_flash.c ****       {
1091:src/Libraries/STM32F10x_StdPeriph_Driver/src/stm32f10x_flash.c ****         /* Disable the OPTER Bit */
1092:src/Libraries/STM32F10x_StdPeriph_Driver/src/stm32f10x_flash.c ****         FLASH->CR &= CR_OPTER_Reset;
1093:src/Libraries/STM32F10x_StdPeriph_Driver/src/stm32f10x_flash.c ****       }
1094:src/Libraries/STM32F10x_StdPeriph_Driver/src/stm32f10x_flash.c ****     }
1095:src/Libraries/STM32F10x_StdPeriph_Driver/src/stm32f10x_flash.c ****   }
1096:src/Libraries/STM32F10x_StdPeriph_Driver/src/stm32f10x_flash.c ****   /* Return the protection operation Status */
1097:src/Libraries/STM32F10x_StdPeriph_Driver/src/stm32f10x_flash.c ****   return status;       
1098:src/Libraries/STM32F10x_StdPeriph_Driver/src/stm32f10x_flash.c **** }
1099:src/Libraries/STM32F10x_StdPeriph_Driver/src/stm32f10x_flash.c **** 
1100:src/Libraries/STM32F10x_StdPeriph_Driver/src/stm32f10x_flash.c **** /**
1101:src/Libraries/STM32F10x_StdPeriph_Driver/src/stm32f10x_flash.c ****   * @brief  Programs the FLASH User Option Byte: IWDG_SW / RST_STOP / RST_STDBY.
1102:src/Libraries/STM32F10x_StdPeriph_Driver/src/stm32f10x_flash.c ****   * @note   This function can be used for all STM32F10x devices.
1103:src/Libraries/STM32F10x_StdPeriph_Driver/src/stm32f10x_flash.c ****   * @param  OB_IWDG: Selects the IWDG mode
1104:src/Libraries/STM32F10x_StdPeriph_Driver/src/stm32f10x_flash.c ****   *   This parameter can be one of the following values:
1105:src/Libraries/STM32F10x_StdPeriph_Driver/src/stm32f10x_flash.c ****   *     @arg OB_IWDG_SW: Software IWDG selected
1106:src/Libraries/STM32F10x_StdPeriph_Driver/src/stm32f10x_flash.c ****   *     @arg OB_IWDG_HW: Hardware IWDG selected
1107:src/Libraries/STM32F10x_StdPeriph_Driver/src/stm32f10x_flash.c ****   * @param  OB_STOP: Reset event when entering STOP mode.
1108:src/Libraries/STM32F10x_StdPeriph_Driver/src/stm32f10x_flash.c ****   *   This parameter can be one of the following values:
1109:src/Libraries/STM32F10x_StdPeriph_Driver/src/stm32f10x_flash.c ****   *     @arg OB_STOP_NoRST: No reset generated when entering in STOP
1110:src/Libraries/STM32F10x_StdPeriph_Driver/src/stm32f10x_flash.c ****   *     @arg OB_STOP_RST: Reset generated when entering in STOP
1111:src/Libraries/STM32F10x_StdPeriph_Driver/src/stm32f10x_flash.c ****   * @param  OB_STDBY: Reset event when entering Standby mode.
1112:src/Libraries/STM32F10x_StdPeriph_Driver/src/stm32f10x_flash.c ****   *   This parameter can be one of the following values:
ARM GAS  C:\Users\dell\AppData\Local\Temp\ccqOk9Jh.s 			page 25


1113:src/Libraries/STM32F10x_StdPeriph_Driver/src/stm32f10x_flash.c ****   *     @arg OB_STDBY_NoRST: No reset generated when entering in STANDBY
1114:src/Libraries/STM32F10x_StdPeriph_Driver/src/stm32f10x_flash.c ****   *     @arg OB_STDBY_RST: Reset generated when entering in STANDBY
1115:src/Libraries/STM32F10x_StdPeriph_Driver/src/stm32f10x_flash.c ****   * @retval FLASH Status: The returned value can be: FLASH_ERROR_PG, 
1116:src/Libraries/STM32F10x_StdPeriph_Driver/src/stm32f10x_flash.c ****   *         FLASH_ERROR_WRP, FLASH_COMPLETE or FLASH_TIMEOUT.
1117:src/Libraries/STM32F10x_StdPeriph_Driver/src/stm32f10x_flash.c ****   */
1118:src/Libraries/STM32F10x_StdPeriph_Driver/src/stm32f10x_flash.c **** FLASH_Status FLASH_UserOptionByteConfig(uint16_t OB_IWDG, uint16_t OB_STOP, uint16_t OB_STDBY)
1119:src/Libraries/STM32F10x_StdPeriph_Driver/src/stm32f10x_flash.c **** {
1120:src/Libraries/STM32F10x_StdPeriph_Driver/src/stm32f10x_flash.c ****   FLASH_Status status = FLASH_COMPLETE; 
1121:src/Libraries/STM32F10x_StdPeriph_Driver/src/stm32f10x_flash.c **** 
1122:src/Libraries/STM32F10x_StdPeriph_Driver/src/stm32f10x_flash.c ****   /* Check the parameters */
1123:src/Libraries/STM32F10x_StdPeriph_Driver/src/stm32f10x_flash.c ****   assert_param(IS_OB_IWDG_SOURCE(OB_IWDG));
1124:src/Libraries/STM32F10x_StdPeriph_Driver/src/stm32f10x_flash.c ****   assert_param(IS_OB_STOP_SOURCE(OB_STOP));
1125:src/Libraries/STM32F10x_StdPeriph_Driver/src/stm32f10x_flash.c ****   assert_param(IS_OB_STDBY_SOURCE(OB_STDBY));
1126:src/Libraries/STM32F10x_StdPeriph_Driver/src/stm32f10x_flash.c **** 
1127:src/Libraries/STM32F10x_StdPeriph_Driver/src/stm32f10x_flash.c ****   /* Authorize the small information block programming */
1128:src/Libraries/STM32F10x_StdPeriph_Driver/src/stm32f10x_flash.c ****   FLASH->OPTKEYR = FLASH_KEY1;
1129:src/Libraries/STM32F10x_StdPeriph_Driver/src/stm32f10x_flash.c ****   FLASH->OPTKEYR = FLASH_KEY2;
1130:src/Libraries/STM32F10x_StdPeriph_Driver/src/stm32f10x_flash.c ****   
1131:src/Libraries/STM32F10x_StdPeriph_Driver/src/stm32f10x_flash.c ****   /* Wait for last operation to be completed */
1132:src/Libraries/STM32F10x_StdPeriph_Driver/src/stm32f10x_flash.c ****   status = FLASH_WaitForLastOperation(ProgramTimeout);
1133:src/Libraries/STM32F10x_StdPeriph_Driver/src/stm32f10x_flash.c ****   
1134:src/Libraries/STM32F10x_StdPeriph_Driver/src/stm32f10x_flash.c ****   if(status == FLASH_COMPLETE)
1135:src/Libraries/STM32F10x_StdPeriph_Driver/src/stm32f10x_flash.c ****   {  
1136:src/Libraries/STM32F10x_StdPeriph_Driver/src/stm32f10x_flash.c ****     /* Enable the Option Bytes Programming operation */
1137:src/Libraries/STM32F10x_StdPeriph_Driver/src/stm32f10x_flash.c ****     FLASH->CR |= CR_OPTPG_Set; 
1138:src/Libraries/STM32F10x_StdPeriph_Driver/src/stm32f10x_flash.c ****            
1139:src/Libraries/STM32F10x_StdPeriph_Driver/src/stm32f10x_flash.c ****     OB->USER = OB_IWDG | (uint16_t)(OB_STOP | (uint16_t)(OB_STDBY | ((uint16_t)0xF8))); 
1140:src/Libraries/STM32F10x_StdPeriph_Driver/src/stm32f10x_flash.c ****   
1141:src/Libraries/STM32F10x_StdPeriph_Driver/src/stm32f10x_flash.c ****     /* Wait for last operation to be completed */
1142:src/Libraries/STM32F10x_StdPeriph_Driver/src/stm32f10x_flash.c ****     status = FLASH_WaitForLastOperation(ProgramTimeout);
1143:src/Libraries/STM32F10x_StdPeriph_Driver/src/stm32f10x_flash.c ****     if(status != FLASH_TIMEOUT)
1144:src/Libraries/STM32F10x_StdPeriph_Driver/src/stm32f10x_flash.c ****     {
1145:src/Libraries/STM32F10x_StdPeriph_Driver/src/stm32f10x_flash.c ****       /* if the program operation is completed, disable the OPTPG Bit */
1146:src/Libraries/STM32F10x_StdPeriph_Driver/src/stm32f10x_flash.c ****       FLASH->CR &= CR_OPTPG_Reset;
1147:src/Libraries/STM32F10x_StdPeriph_Driver/src/stm32f10x_flash.c ****     }
1148:src/Libraries/STM32F10x_StdPeriph_Driver/src/stm32f10x_flash.c ****   }    
1149:src/Libraries/STM32F10x_StdPeriph_Driver/src/stm32f10x_flash.c ****   /* Return the Option Byte program Status */
1150:src/Libraries/STM32F10x_StdPeriph_Driver/src/stm32f10x_flash.c ****   return status;
1151:src/Libraries/STM32F10x_StdPeriph_Driver/src/stm32f10x_flash.c **** }
1152:src/Libraries/STM32F10x_StdPeriph_Driver/src/stm32f10x_flash.c **** 
1153:src/Libraries/STM32F10x_StdPeriph_Driver/src/stm32f10x_flash.c **** #ifdef STM32F10X_XL
1154:src/Libraries/STM32F10x_StdPeriph_Driver/src/stm32f10x_flash.c **** /**
1155:src/Libraries/STM32F10x_StdPeriph_Driver/src/stm32f10x_flash.c ****   * @brief  Configures to boot from Bank1 or Bank2.  
1156:src/Libraries/STM32F10x_StdPeriph_Driver/src/stm32f10x_flash.c ****   * @note   This function can be used only for STM32F10x_XL density devices.
1157:src/Libraries/STM32F10x_StdPeriph_Driver/src/stm32f10x_flash.c ****   * @param  FLASH_BOOT: select the FLASH Bank to boot from.
1158:src/Libraries/STM32F10x_StdPeriph_Driver/src/stm32f10x_flash.c ****   *   This parameter can be one of the following values:
1159:src/Libraries/STM32F10x_StdPeriph_Driver/src/stm32f10x_flash.c ****   *     @arg FLASH_BOOT_Bank1: At startup, if boot pins are set in boot from user Flash
1160:src/Libraries/STM32F10x_StdPeriph_Driver/src/stm32f10x_flash.c ****   *        position and this parameter is selected the device will boot from Bank1(Default).
1161:src/Libraries/STM32F10x_StdPeriph_Driver/src/stm32f10x_flash.c ****   *     @arg FLASH_BOOT_Bank2: At startup, if boot pins are set in boot from user Flash
1162:src/Libraries/STM32F10x_StdPeriph_Driver/src/stm32f10x_flash.c ****   *        position and this parameter is selected the device will boot from Bank2 or Bank1,
1163:src/Libraries/STM32F10x_StdPeriph_Driver/src/stm32f10x_flash.c ****   *        depending on the activation of the bank. The active banks are checked in
1164:src/Libraries/STM32F10x_StdPeriph_Driver/src/stm32f10x_flash.c ****   *        the following order: Bank2, followed by Bank1.
1165:src/Libraries/STM32F10x_StdPeriph_Driver/src/stm32f10x_flash.c ****   *        The active bank is recognized by the value programmed at the base address
1166:src/Libraries/STM32F10x_StdPeriph_Driver/src/stm32f10x_flash.c ****   *        of the respective bank (corresponding to the initial stack pointer value
1167:src/Libraries/STM32F10x_StdPeriph_Driver/src/stm32f10x_flash.c ****   *        in the interrupt vector table).
1168:src/Libraries/STM32F10x_StdPeriph_Driver/src/stm32f10x_flash.c ****   *        For more information, please refer to AN2606 from www.st.com.    
1169:src/Libraries/STM32F10x_StdPeriph_Driver/src/stm32f10x_flash.c ****   * @retval FLASH Status: The returned value can be: FLASH_ERROR_PG, 
ARM GAS  C:\Users\dell\AppData\Local\Temp\ccqOk9Jh.s 			page 26


1170:src/Libraries/STM32F10x_StdPeriph_Driver/src/stm32f10x_flash.c ****   *         FLASH_ERROR_WRP, FLASH_COMPLETE or FLASH_TIMEOUT.
1171:src/Libraries/STM32F10x_StdPeriph_Driver/src/stm32f10x_flash.c ****   */
1172:src/Libraries/STM32F10x_StdPeriph_Driver/src/stm32f10x_flash.c **** FLASH_Status FLASH_BootConfig(uint16_t FLASH_BOOT)
1173:src/Libraries/STM32F10x_StdPeriph_Driver/src/stm32f10x_flash.c **** { 
1174:src/Libraries/STM32F10x_StdPeriph_Driver/src/stm32f10x_flash.c ****   FLASH_Status status = FLASH_COMPLETE; 
1175:src/Libraries/STM32F10x_StdPeriph_Driver/src/stm32f10x_flash.c ****   assert_param(IS_FLASH_BOOT(FLASH_BOOT));
1176:src/Libraries/STM32F10x_StdPeriph_Driver/src/stm32f10x_flash.c ****   /* Authorize the small information block programming */
1177:src/Libraries/STM32F10x_StdPeriph_Driver/src/stm32f10x_flash.c ****   FLASH->OPTKEYR = FLASH_KEY1;
1178:src/Libraries/STM32F10x_StdPeriph_Driver/src/stm32f10x_flash.c ****   FLASH->OPTKEYR = FLASH_KEY2;
1179:src/Libraries/STM32F10x_StdPeriph_Driver/src/stm32f10x_flash.c ****   
1180:src/Libraries/STM32F10x_StdPeriph_Driver/src/stm32f10x_flash.c ****   /* Wait for last operation to be completed */
1181:src/Libraries/STM32F10x_StdPeriph_Driver/src/stm32f10x_flash.c ****   status = FLASH_WaitForLastOperation(ProgramTimeout);
1182:src/Libraries/STM32F10x_StdPeriph_Driver/src/stm32f10x_flash.c ****   
1183:src/Libraries/STM32F10x_StdPeriph_Driver/src/stm32f10x_flash.c ****   if(status == FLASH_COMPLETE)
1184:src/Libraries/STM32F10x_StdPeriph_Driver/src/stm32f10x_flash.c ****   {  
1185:src/Libraries/STM32F10x_StdPeriph_Driver/src/stm32f10x_flash.c ****     /* Enable the Option Bytes Programming operation */
1186:src/Libraries/STM32F10x_StdPeriph_Driver/src/stm32f10x_flash.c ****     FLASH->CR |= CR_OPTPG_Set; 
1187:src/Libraries/STM32F10x_StdPeriph_Driver/src/stm32f10x_flash.c **** 
1188:src/Libraries/STM32F10x_StdPeriph_Driver/src/stm32f10x_flash.c ****     if(FLASH_BOOT == FLASH_BOOT_Bank1)
1189:src/Libraries/STM32F10x_StdPeriph_Driver/src/stm32f10x_flash.c ****     {
1190:src/Libraries/STM32F10x_StdPeriph_Driver/src/stm32f10x_flash.c ****       OB->USER |= OB_USER_BFB2;
1191:src/Libraries/STM32F10x_StdPeriph_Driver/src/stm32f10x_flash.c ****     }
1192:src/Libraries/STM32F10x_StdPeriph_Driver/src/stm32f10x_flash.c ****     else
1193:src/Libraries/STM32F10x_StdPeriph_Driver/src/stm32f10x_flash.c ****     {
1194:src/Libraries/STM32F10x_StdPeriph_Driver/src/stm32f10x_flash.c ****       OB->USER &= (uint16_t)(~(uint16_t)(OB_USER_BFB2));
1195:src/Libraries/STM32F10x_StdPeriph_Driver/src/stm32f10x_flash.c ****     }
1196:src/Libraries/STM32F10x_StdPeriph_Driver/src/stm32f10x_flash.c ****     /* Wait for last operation to be completed */
1197:src/Libraries/STM32F10x_StdPeriph_Driver/src/stm32f10x_flash.c ****     status = FLASH_WaitForLastOperation(ProgramTimeout);
1198:src/Libraries/STM32F10x_StdPeriph_Driver/src/stm32f10x_flash.c ****     if(status != FLASH_TIMEOUT)
1199:src/Libraries/STM32F10x_StdPeriph_Driver/src/stm32f10x_flash.c ****     {
1200:src/Libraries/STM32F10x_StdPeriph_Driver/src/stm32f10x_flash.c ****       /* if the program operation is completed, disable the OPTPG Bit */
1201:src/Libraries/STM32F10x_StdPeriph_Driver/src/stm32f10x_flash.c ****       FLASH->CR &= CR_OPTPG_Reset;
1202:src/Libraries/STM32F10x_StdPeriph_Driver/src/stm32f10x_flash.c ****     }
1203:src/Libraries/STM32F10x_StdPeriph_Driver/src/stm32f10x_flash.c ****   }    
1204:src/Libraries/STM32F10x_StdPeriph_Driver/src/stm32f10x_flash.c ****   /* Return the Option Byte program Status */
1205:src/Libraries/STM32F10x_StdPeriph_Driver/src/stm32f10x_flash.c ****   return status;
1206:src/Libraries/STM32F10x_StdPeriph_Driver/src/stm32f10x_flash.c **** }
1207:src/Libraries/STM32F10x_StdPeriph_Driver/src/stm32f10x_flash.c **** #endif /* STM32F10X_XL */
1208:src/Libraries/STM32F10x_StdPeriph_Driver/src/stm32f10x_flash.c **** 
1209:src/Libraries/STM32F10x_StdPeriph_Driver/src/stm32f10x_flash.c **** /**
1210:src/Libraries/STM32F10x_StdPeriph_Driver/src/stm32f10x_flash.c ****   * @brief  Returns the FLASH User Option Bytes values.
1211:src/Libraries/STM32F10x_StdPeriph_Driver/src/stm32f10x_flash.c ****   * @note   This function can be used for all STM32F10x devices.
1212:src/Libraries/STM32F10x_StdPeriph_Driver/src/stm32f10x_flash.c ****   * @param  None
1213:src/Libraries/STM32F10x_StdPeriph_Driver/src/stm32f10x_flash.c ****   * @retval The FLASH User Option Bytes values:IWDG_SW(Bit0), RST_STOP(Bit1)
1214:src/Libraries/STM32F10x_StdPeriph_Driver/src/stm32f10x_flash.c ****   *         and RST_STDBY(Bit2).
1215:src/Libraries/STM32F10x_StdPeriph_Driver/src/stm32f10x_flash.c ****   */
1216:src/Libraries/STM32F10x_StdPeriph_Driver/src/stm32f10x_flash.c **** uint32_t FLASH_GetUserOptionByte(void)
1217:src/Libraries/STM32F10x_StdPeriph_Driver/src/stm32f10x_flash.c **** {
 272              		.loc 1 1217 1 is_stmt 1 view -0
 273              		.cfi_startproc
 274              		@ args = 0, pretend = 0, frame = 0
 275              		@ frame_needed = 0, uses_anonymous_args = 0
 276              		@ link register save eliminated.
1218:src/Libraries/STM32F10x_StdPeriph_Driver/src/stm32f10x_flash.c ****   /* Return the User Option Byte */
1219:src/Libraries/STM32F10x_StdPeriph_Driver/src/stm32f10x_flash.c ****   return (uint32_t)(FLASH->OBR >> 2);
 277              		.loc 1 1219 3 view .LVU47
 278              		.loc 1 1219 26 is_stmt 0 view .LVU48
ARM GAS  C:\Users\dell\AppData\Local\Temp\ccqOk9Jh.s 			page 27


 279 0000 014B     		ldr	r3, .L23
 280 0002 D869     		ldr	r0, [r3, #28]
1220:src/Libraries/STM32F10x_StdPeriph_Driver/src/stm32f10x_flash.c **** }
 281              		.loc 1 1220 1 view .LVU49
 282 0004 8008     		lsrs	r0, r0, #2
 283 0006 7047     		bx	lr
 284              	.L24:
 285              		.align	2
 286              	.L23:
 287 0008 00200240 		.word	1073881088
 288              		.cfi_endproc
 289              	.LFE46:
 291              		.section	.text.FLASH_GetWriteProtectionOptionByte,"ax",%progbits
 292              		.align	1
 293              		.global	FLASH_GetWriteProtectionOptionByte
 294              		.syntax unified
 295              		.thumb
 296              		.thumb_func
 297              		.fpu softvfp
 299              	FLASH_GetWriteProtectionOptionByte:
 300              	.LFB47:
1221:src/Libraries/STM32F10x_StdPeriph_Driver/src/stm32f10x_flash.c **** 
1222:src/Libraries/STM32F10x_StdPeriph_Driver/src/stm32f10x_flash.c **** /**
1223:src/Libraries/STM32F10x_StdPeriph_Driver/src/stm32f10x_flash.c ****   * @brief  Returns the FLASH Write Protection Option Bytes Register value.
1224:src/Libraries/STM32F10x_StdPeriph_Driver/src/stm32f10x_flash.c ****   * @note   This function can be used for all STM32F10x devices.
1225:src/Libraries/STM32F10x_StdPeriph_Driver/src/stm32f10x_flash.c ****   * @param  None
1226:src/Libraries/STM32F10x_StdPeriph_Driver/src/stm32f10x_flash.c ****   * @retval The FLASH Write Protection  Option Bytes Register value
1227:src/Libraries/STM32F10x_StdPeriph_Driver/src/stm32f10x_flash.c ****   */
1228:src/Libraries/STM32F10x_StdPeriph_Driver/src/stm32f10x_flash.c **** uint32_t FLASH_GetWriteProtectionOptionByte(void)
1229:src/Libraries/STM32F10x_StdPeriph_Driver/src/stm32f10x_flash.c **** {
 301              		.loc 1 1229 1 is_stmt 1 view -0
 302              		.cfi_startproc
 303              		@ args = 0, pretend = 0, frame = 0
 304              		@ frame_needed = 0, uses_anonymous_args = 0
 305              		@ link register save eliminated.
1230:src/Libraries/STM32F10x_StdPeriph_Driver/src/stm32f10x_flash.c ****   /* Return the Flash write protection Register value */
1231:src/Libraries/STM32F10x_StdPeriph_Driver/src/stm32f10x_flash.c ****   return (uint32_t)(FLASH->WRPR);
 306              		.loc 1 1231 3 view .LVU51
 307              		.loc 1 1231 10 is_stmt 0 view .LVU52
 308 0000 014B     		ldr	r3, .L26
 309 0002 186A     		ldr	r0, [r3, #32]
1232:src/Libraries/STM32F10x_StdPeriph_Driver/src/stm32f10x_flash.c **** }
 310              		.loc 1 1232 1 view .LVU53
 311 0004 7047     		bx	lr
 312              	.L27:
 313 0006 00BF     		.align	2
 314              	.L26:
 315 0008 00200240 		.word	1073881088
 316              		.cfi_endproc
 317              	.LFE47:
 319              		.section	.text.FLASH_GetReadOutProtectionStatus,"ax",%progbits
 320              		.align	1
 321              		.global	FLASH_GetReadOutProtectionStatus
 322              		.syntax unified
 323              		.thumb
 324              		.thumb_func
 325              		.fpu softvfp
ARM GAS  C:\Users\dell\AppData\Local\Temp\ccqOk9Jh.s 			page 28


 327              	FLASH_GetReadOutProtectionStatus:
 328              	.LFB48:
1233:src/Libraries/STM32F10x_StdPeriph_Driver/src/stm32f10x_flash.c **** 
1234:src/Libraries/STM32F10x_StdPeriph_Driver/src/stm32f10x_flash.c **** /**
1235:src/Libraries/STM32F10x_StdPeriph_Driver/src/stm32f10x_flash.c ****   * @brief  Checks whether the FLASH Read Out Protection Status is set or not.
1236:src/Libraries/STM32F10x_StdPeriph_Driver/src/stm32f10x_flash.c ****   * @note   This function can be used for all STM32F10x devices.
1237:src/Libraries/STM32F10x_StdPeriph_Driver/src/stm32f10x_flash.c ****   * @param  None
1238:src/Libraries/STM32F10x_StdPeriph_Driver/src/stm32f10x_flash.c ****   * @retval FLASH ReadOut Protection Status(SET or RESET)
1239:src/Libraries/STM32F10x_StdPeriph_Driver/src/stm32f10x_flash.c ****   */
1240:src/Libraries/STM32F10x_StdPeriph_Driver/src/stm32f10x_flash.c **** FlagStatus FLASH_GetReadOutProtectionStatus(void)
1241:src/Libraries/STM32F10x_StdPeriph_Driver/src/stm32f10x_flash.c **** {
 329              		.loc 1 1241 1 is_stmt 1 view -0
 330              		.cfi_startproc
 331              		@ args = 0, pretend = 0, frame = 0
 332              		@ frame_needed = 0, uses_anonymous_args = 0
 333              		@ link register save eliminated.
1242:src/Libraries/STM32F10x_StdPeriph_Driver/src/stm32f10x_flash.c ****   FlagStatus readoutstatus = RESET;
 334              		.loc 1 1242 3 view .LVU55
 335              	.LVL6:
1243:src/Libraries/STM32F10x_StdPeriph_Driver/src/stm32f10x_flash.c ****   if ((FLASH->OBR & RDPRT_Mask) != (uint32_t)RESET)
 336              		.loc 1 1243 3 view .LVU56
 337              		.loc 1 1243 13 is_stmt 0 view .LVU57
 338 0000 044B     		ldr	r3, .L31
 339 0002 DB69     		ldr	r3, [r3, #28]
 340              		.loc 1 1243 6 view .LVU58
 341 0004 13F0020F 		tst	r3, #2
 342 0008 01D0     		beq	.L30
1244:src/Libraries/STM32F10x_StdPeriph_Driver/src/stm32f10x_flash.c ****   {
1245:src/Libraries/STM32F10x_StdPeriph_Driver/src/stm32f10x_flash.c ****     readoutstatus = SET;
 343              		.loc 1 1245 19 view .LVU59
 344 000a 0120     		movs	r0, #1
 345 000c 7047     		bx	lr
 346              	.L30:
1246:src/Libraries/STM32F10x_StdPeriph_Driver/src/stm32f10x_flash.c ****   }
1247:src/Libraries/STM32F10x_StdPeriph_Driver/src/stm32f10x_flash.c ****   else
1248:src/Libraries/STM32F10x_StdPeriph_Driver/src/stm32f10x_flash.c ****   {
1249:src/Libraries/STM32F10x_StdPeriph_Driver/src/stm32f10x_flash.c ****     readoutstatus = RESET;
 347              		.loc 1 1249 19 view .LVU60
 348 000e 0020     		movs	r0, #0
 349              	.LVL7:
1250:src/Libraries/STM32F10x_StdPeriph_Driver/src/stm32f10x_flash.c ****   }
1251:src/Libraries/STM32F10x_StdPeriph_Driver/src/stm32f10x_flash.c ****   return readoutstatus;
 350              		.loc 1 1251 3 is_stmt 1 view .LVU61
1252:src/Libraries/STM32F10x_StdPeriph_Driver/src/stm32f10x_flash.c **** }
 351              		.loc 1 1252 1 is_stmt 0 view .LVU62
 352 0010 7047     		bx	lr
 353              	.L32:
 354 0012 00BF     		.align	2
 355              	.L31:
 356 0014 00200240 		.word	1073881088
 357              		.cfi_endproc
 358              	.LFE48:
 360              		.section	.text.FLASH_GetPrefetchBufferStatus,"ax",%progbits
 361              		.align	1
 362              		.global	FLASH_GetPrefetchBufferStatus
 363              		.syntax unified
 364              		.thumb
ARM GAS  C:\Users\dell\AppData\Local\Temp\ccqOk9Jh.s 			page 29


 365              		.thumb_func
 366              		.fpu softvfp
 368              	FLASH_GetPrefetchBufferStatus:
 369              	.LFB49:
1253:src/Libraries/STM32F10x_StdPeriph_Driver/src/stm32f10x_flash.c **** 
1254:src/Libraries/STM32F10x_StdPeriph_Driver/src/stm32f10x_flash.c **** /**
1255:src/Libraries/STM32F10x_StdPeriph_Driver/src/stm32f10x_flash.c ****   * @brief  Checks whether the FLASH Prefetch Buffer status is set or not.
1256:src/Libraries/STM32F10x_StdPeriph_Driver/src/stm32f10x_flash.c ****   * @note   This function can be used for all STM32F10x devices.
1257:src/Libraries/STM32F10x_StdPeriph_Driver/src/stm32f10x_flash.c ****   * @param  None
1258:src/Libraries/STM32F10x_StdPeriph_Driver/src/stm32f10x_flash.c ****   * @retval FLASH Prefetch Buffer Status (SET or RESET).
1259:src/Libraries/STM32F10x_StdPeriph_Driver/src/stm32f10x_flash.c ****   */
1260:src/Libraries/STM32F10x_StdPeriph_Driver/src/stm32f10x_flash.c **** FlagStatus FLASH_GetPrefetchBufferStatus(void)
1261:src/Libraries/STM32F10x_StdPeriph_Driver/src/stm32f10x_flash.c **** {
 370              		.loc 1 1261 1 is_stmt 1 view -0
 371              		.cfi_startproc
 372              		@ args = 0, pretend = 0, frame = 0
 373              		@ frame_needed = 0, uses_anonymous_args = 0
 374              		@ link register save eliminated.
1262:src/Libraries/STM32F10x_StdPeriph_Driver/src/stm32f10x_flash.c ****   FlagStatus bitstatus = RESET;
 375              		.loc 1 1262 3 view .LVU64
 376              	.LVL8:
1263:src/Libraries/STM32F10x_StdPeriph_Driver/src/stm32f10x_flash.c ****   
1264:src/Libraries/STM32F10x_StdPeriph_Driver/src/stm32f10x_flash.c ****   if ((FLASH->ACR & ACR_PRFTBS_Mask) != (uint32_t)RESET)
 377              		.loc 1 1264 3 view .LVU65
 378              		.loc 1 1264 13 is_stmt 0 view .LVU66
 379 0000 044B     		ldr	r3, .L36
 380 0002 1B68     		ldr	r3, [r3]
 381              		.loc 1 1264 6 view .LVU67
 382 0004 13F0200F 		tst	r3, #32
 383 0008 01D0     		beq	.L35
1265:src/Libraries/STM32F10x_StdPeriph_Driver/src/stm32f10x_flash.c ****   {
1266:src/Libraries/STM32F10x_StdPeriph_Driver/src/stm32f10x_flash.c ****     bitstatus = SET;
 384              		.loc 1 1266 15 view .LVU68
 385 000a 0120     		movs	r0, #1
 386 000c 7047     		bx	lr
 387              	.L35:
1267:src/Libraries/STM32F10x_StdPeriph_Driver/src/stm32f10x_flash.c ****   }
1268:src/Libraries/STM32F10x_StdPeriph_Driver/src/stm32f10x_flash.c ****   else
1269:src/Libraries/STM32F10x_StdPeriph_Driver/src/stm32f10x_flash.c ****   {
1270:src/Libraries/STM32F10x_StdPeriph_Driver/src/stm32f10x_flash.c ****     bitstatus = RESET;
 388              		.loc 1 1270 15 view .LVU69
 389 000e 0020     		movs	r0, #0
 390              	.LVL9:
1271:src/Libraries/STM32F10x_StdPeriph_Driver/src/stm32f10x_flash.c ****   }
1272:src/Libraries/STM32F10x_StdPeriph_Driver/src/stm32f10x_flash.c ****   /* Return the new state of FLASH Prefetch Buffer Status (SET or RESET) */
1273:src/Libraries/STM32F10x_StdPeriph_Driver/src/stm32f10x_flash.c ****   return bitstatus; 
 391              		.loc 1 1273 3 is_stmt 1 view .LVU70
1274:src/Libraries/STM32F10x_StdPeriph_Driver/src/stm32f10x_flash.c **** }
 392              		.loc 1 1274 1 is_stmt 0 view .LVU71
 393 0010 7047     		bx	lr
 394              	.L37:
 395 0012 00BF     		.align	2
 396              	.L36:
 397 0014 00200240 		.word	1073881088
 398              		.cfi_endproc
 399              	.LFE49:
 401              		.section	.text.FLASH_ITConfig,"ax",%progbits
ARM GAS  C:\Users\dell\AppData\Local\Temp\ccqOk9Jh.s 			page 30


 402              		.align	1
 403              		.global	FLASH_ITConfig
 404              		.syntax unified
 405              		.thumb
 406              		.thumb_func
 407              		.fpu softvfp
 409              	FLASH_ITConfig:
 410              	.LVL10:
 411              	.LFB50:
1275:src/Libraries/STM32F10x_StdPeriph_Driver/src/stm32f10x_flash.c **** 
1276:src/Libraries/STM32F10x_StdPeriph_Driver/src/stm32f10x_flash.c **** /**
1277:src/Libraries/STM32F10x_StdPeriph_Driver/src/stm32f10x_flash.c ****   * @brief  Enables or disables the specified FLASH interrupts.
1278:src/Libraries/STM32F10x_StdPeriph_Driver/src/stm32f10x_flash.c ****   * @note   This function can be used for all STM32F10x devices.
1279:src/Libraries/STM32F10x_StdPeriph_Driver/src/stm32f10x_flash.c ****   *         - For STM32F10X_XL devices, enables or disables the specified FLASH interrupts
1280:src/Libraries/STM32F10x_StdPeriph_Driver/src/stm32f10x_flash.c ****               for Bank1 and Bank2.
1281:src/Libraries/STM32F10x_StdPeriph_Driver/src/stm32f10x_flash.c ****   *         - For other devices it enables or disables the specified FLASH interrupts for Bank1.
1282:src/Libraries/STM32F10x_StdPeriph_Driver/src/stm32f10x_flash.c ****   * @param  FLASH_IT: specifies the FLASH interrupt sources to be enabled or disabled.
1283:src/Libraries/STM32F10x_StdPeriph_Driver/src/stm32f10x_flash.c ****   *   This parameter can be any combination of the following values:
1284:src/Libraries/STM32F10x_StdPeriph_Driver/src/stm32f10x_flash.c ****   *     @arg FLASH_IT_ERROR: FLASH Error Interrupt
1285:src/Libraries/STM32F10x_StdPeriph_Driver/src/stm32f10x_flash.c ****   *     @arg FLASH_IT_EOP: FLASH end of operation Interrupt
1286:src/Libraries/STM32F10x_StdPeriph_Driver/src/stm32f10x_flash.c ****   * @param  NewState: new state of the specified Flash interrupts.
1287:src/Libraries/STM32F10x_StdPeriph_Driver/src/stm32f10x_flash.c ****   *   This parameter can be: ENABLE or DISABLE.      
1288:src/Libraries/STM32F10x_StdPeriph_Driver/src/stm32f10x_flash.c ****   * @retval None 
1289:src/Libraries/STM32F10x_StdPeriph_Driver/src/stm32f10x_flash.c ****   */
1290:src/Libraries/STM32F10x_StdPeriph_Driver/src/stm32f10x_flash.c **** void FLASH_ITConfig(uint32_t FLASH_IT, FunctionalState NewState)
1291:src/Libraries/STM32F10x_StdPeriph_Driver/src/stm32f10x_flash.c **** {
 412              		.loc 1 1291 1 is_stmt 1 view -0
 413              		.cfi_startproc
 414              		@ args = 0, pretend = 0, frame = 0
 415              		@ frame_needed = 0, uses_anonymous_args = 0
 416              		@ link register save eliminated.
1292:src/Libraries/STM32F10x_StdPeriph_Driver/src/stm32f10x_flash.c **** #ifdef STM32F10X_XL
1293:src/Libraries/STM32F10x_StdPeriph_Driver/src/stm32f10x_flash.c ****   /* Check the parameters */
1294:src/Libraries/STM32F10x_StdPeriph_Driver/src/stm32f10x_flash.c ****   assert_param(IS_FLASH_IT(FLASH_IT)); 
1295:src/Libraries/STM32F10x_StdPeriph_Driver/src/stm32f10x_flash.c ****   assert_param(IS_FUNCTIONAL_STATE(NewState));
1296:src/Libraries/STM32F10x_StdPeriph_Driver/src/stm32f10x_flash.c **** 
1297:src/Libraries/STM32F10x_StdPeriph_Driver/src/stm32f10x_flash.c ****   if((FLASH_IT & 0x80000000) != 0x0)
1298:src/Libraries/STM32F10x_StdPeriph_Driver/src/stm32f10x_flash.c ****   {
1299:src/Libraries/STM32F10x_StdPeriph_Driver/src/stm32f10x_flash.c ****     if(NewState != DISABLE)
1300:src/Libraries/STM32F10x_StdPeriph_Driver/src/stm32f10x_flash.c ****     {
1301:src/Libraries/STM32F10x_StdPeriph_Driver/src/stm32f10x_flash.c ****       /* Enable the interrupt sources */
1302:src/Libraries/STM32F10x_StdPeriph_Driver/src/stm32f10x_flash.c ****       FLASH->CR2 |= (FLASH_IT & 0x7FFFFFFF);
1303:src/Libraries/STM32F10x_StdPeriph_Driver/src/stm32f10x_flash.c ****     }
1304:src/Libraries/STM32F10x_StdPeriph_Driver/src/stm32f10x_flash.c ****     else
1305:src/Libraries/STM32F10x_StdPeriph_Driver/src/stm32f10x_flash.c ****     {
1306:src/Libraries/STM32F10x_StdPeriph_Driver/src/stm32f10x_flash.c ****       /* Disable the interrupt sources */
1307:src/Libraries/STM32F10x_StdPeriph_Driver/src/stm32f10x_flash.c ****       FLASH->CR2 &= ~(uint32_t)(FLASH_IT & 0x7FFFFFFF);
1308:src/Libraries/STM32F10x_StdPeriph_Driver/src/stm32f10x_flash.c ****     }
1309:src/Libraries/STM32F10x_StdPeriph_Driver/src/stm32f10x_flash.c ****   }
1310:src/Libraries/STM32F10x_StdPeriph_Driver/src/stm32f10x_flash.c ****   else
1311:src/Libraries/STM32F10x_StdPeriph_Driver/src/stm32f10x_flash.c ****   {
1312:src/Libraries/STM32F10x_StdPeriph_Driver/src/stm32f10x_flash.c ****     if(NewState != DISABLE)
1313:src/Libraries/STM32F10x_StdPeriph_Driver/src/stm32f10x_flash.c ****     {
1314:src/Libraries/STM32F10x_StdPeriph_Driver/src/stm32f10x_flash.c ****       /* Enable the interrupt sources */
1315:src/Libraries/STM32F10x_StdPeriph_Driver/src/stm32f10x_flash.c ****       FLASH->CR |= FLASH_IT;
1316:src/Libraries/STM32F10x_StdPeriph_Driver/src/stm32f10x_flash.c ****     }
1317:src/Libraries/STM32F10x_StdPeriph_Driver/src/stm32f10x_flash.c ****     else
ARM GAS  C:\Users\dell\AppData\Local\Temp\ccqOk9Jh.s 			page 31


1318:src/Libraries/STM32F10x_StdPeriph_Driver/src/stm32f10x_flash.c ****     {
1319:src/Libraries/STM32F10x_StdPeriph_Driver/src/stm32f10x_flash.c ****       /* Disable the interrupt sources */
1320:src/Libraries/STM32F10x_StdPeriph_Driver/src/stm32f10x_flash.c ****       FLASH->CR &= ~(uint32_t)FLASH_IT;
1321:src/Libraries/STM32F10x_StdPeriph_Driver/src/stm32f10x_flash.c ****     }
1322:src/Libraries/STM32F10x_StdPeriph_Driver/src/stm32f10x_flash.c ****   }
1323:src/Libraries/STM32F10x_StdPeriph_Driver/src/stm32f10x_flash.c **** #else
1324:src/Libraries/STM32F10x_StdPeriph_Driver/src/stm32f10x_flash.c ****   /* Check the parameters */
1325:src/Libraries/STM32F10x_StdPeriph_Driver/src/stm32f10x_flash.c ****   assert_param(IS_FLASH_IT(FLASH_IT)); 
 417              		.loc 1 1325 3 view .LVU73
1326:src/Libraries/STM32F10x_StdPeriph_Driver/src/stm32f10x_flash.c ****   assert_param(IS_FUNCTIONAL_STATE(NewState));
 418              		.loc 1 1326 3 view .LVU74
1327:src/Libraries/STM32F10x_StdPeriph_Driver/src/stm32f10x_flash.c **** 
1328:src/Libraries/STM32F10x_StdPeriph_Driver/src/stm32f10x_flash.c ****   if(NewState != DISABLE)
 419              		.loc 1 1328 3 view .LVU75
 420              		.loc 1 1328 5 is_stmt 0 view .LVU76
 421 0000 21B1     		cbz	r1, .L39
1329:src/Libraries/STM32F10x_StdPeriph_Driver/src/stm32f10x_flash.c ****   {
1330:src/Libraries/STM32F10x_StdPeriph_Driver/src/stm32f10x_flash.c ****     /* Enable the interrupt sources */
1331:src/Libraries/STM32F10x_StdPeriph_Driver/src/stm32f10x_flash.c ****     FLASH->CR |= FLASH_IT;
 422              		.loc 1 1331 5 is_stmt 1 view .LVU77
 423              		.loc 1 1331 15 is_stmt 0 view .LVU78
 424 0002 054A     		ldr	r2, .L41
 425 0004 1369     		ldr	r3, [r2, #16]
 426 0006 1843     		orrs	r0, r0, r3
 427              	.LVL11:
 428              		.loc 1 1331 15 view .LVU79
 429 0008 1061     		str	r0, [r2, #16]
 430 000a 7047     		bx	lr
 431              	.LVL12:
 432              	.L39:
1332:src/Libraries/STM32F10x_StdPeriph_Driver/src/stm32f10x_flash.c ****   }
1333:src/Libraries/STM32F10x_StdPeriph_Driver/src/stm32f10x_flash.c ****   else
1334:src/Libraries/STM32F10x_StdPeriph_Driver/src/stm32f10x_flash.c ****   {
1335:src/Libraries/STM32F10x_StdPeriph_Driver/src/stm32f10x_flash.c ****     /* Disable the interrupt sources */
1336:src/Libraries/STM32F10x_StdPeriph_Driver/src/stm32f10x_flash.c ****     FLASH->CR &= ~(uint32_t)FLASH_IT;
 433              		.loc 1 1336 5 is_stmt 1 view .LVU80
 434              		.loc 1 1336 15 is_stmt 0 view .LVU81
 435 000c 024A     		ldr	r2, .L41
 436 000e 1369     		ldr	r3, [r2, #16]
 437 0010 23EA0000 		bic	r0, r3, r0
 438              	.LVL13:
 439              		.loc 1 1336 15 view .LVU82
 440 0014 1061     		str	r0, [r2, #16]
1337:src/Libraries/STM32F10x_StdPeriph_Driver/src/stm32f10x_flash.c ****   }
1338:src/Libraries/STM32F10x_StdPeriph_Driver/src/stm32f10x_flash.c **** #endif /* STM32F10X_XL */
1339:src/Libraries/STM32F10x_StdPeriph_Driver/src/stm32f10x_flash.c **** }
 441              		.loc 1 1339 1 view .LVU83
 442 0016 7047     		bx	lr
 443              	.L42:
 444              		.align	2
 445              	.L41:
 446 0018 00200240 		.word	1073881088
 447              		.cfi_endproc
 448              	.LFE50:
 450              		.section	.text.FLASH_GetFlagStatus,"ax",%progbits
 451              		.align	1
 452              		.global	FLASH_GetFlagStatus
ARM GAS  C:\Users\dell\AppData\Local\Temp\ccqOk9Jh.s 			page 32


 453              		.syntax unified
 454              		.thumb
 455              		.thumb_func
 456              		.fpu softvfp
 458              	FLASH_GetFlagStatus:
 459              	.LVL14:
 460              	.LFB51:
1340:src/Libraries/STM32F10x_StdPeriph_Driver/src/stm32f10x_flash.c **** 
1341:src/Libraries/STM32F10x_StdPeriph_Driver/src/stm32f10x_flash.c **** /**
1342:src/Libraries/STM32F10x_StdPeriph_Driver/src/stm32f10x_flash.c ****   * @brief  Checks whether the specified FLASH flag is set or not.
1343:src/Libraries/STM32F10x_StdPeriph_Driver/src/stm32f10x_flash.c ****   * @note   This function can be used for all STM32F10x devices.
1344:src/Libraries/STM32F10x_StdPeriph_Driver/src/stm32f10x_flash.c ****   *         - For STM32F10X_XL devices, this function checks whether the specified 
1345:src/Libraries/STM32F10x_StdPeriph_Driver/src/stm32f10x_flash.c ****   *           Bank1 or Bank2 flag is set or not.
1346:src/Libraries/STM32F10x_StdPeriph_Driver/src/stm32f10x_flash.c ****   *         - For other devices, it checks whether the specified Bank1 flag is 
1347:src/Libraries/STM32F10x_StdPeriph_Driver/src/stm32f10x_flash.c ****   *           set or not.
1348:src/Libraries/STM32F10x_StdPeriph_Driver/src/stm32f10x_flash.c ****   * @param  FLASH_FLAG: specifies the FLASH flag to check.
1349:src/Libraries/STM32F10x_StdPeriph_Driver/src/stm32f10x_flash.c ****   *   This parameter can be one of the following values:
1350:src/Libraries/STM32F10x_StdPeriph_Driver/src/stm32f10x_flash.c ****   *     @arg FLASH_FLAG_BSY: FLASH Busy flag           
1351:src/Libraries/STM32F10x_StdPeriph_Driver/src/stm32f10x_flash.c ****   *     @arg FLASH_FLAG_PGERR: FLASH Program error flag       
1352:src/Libraries/STM32F10x_StdPeriph_Driver/src/stm32f10x_flash.c ****   *     @arg FLASH_FLAG_WRPRTERR: FLASH Write protected error flag      
1353:src/Libraries/STM32F10x_StdPeriph_Driver/src/stm32f10x_flash.c ****   *     @arg FLASH_FLAG_EOP: FLASH End of Operation flag           
1354:src/Libraries/STM32F10x_StdPeriph_Driver/src/stm32f10x_flash.c ****   *     @arg FLASH_FLAG_OPTERR:  FLASH Option Byte error flag     
1355:src/Libraries/STM32F10x_StdPeriph_Driver/src/stm32f10x_flash.c ****   * @retval The new state of FLASH_FLAG (SET or RESET).
1356:src/Libraries/STM32F10x_StdPeriph_Driver/src/stm32f10x_flash.c ****   */
1357:src/Libraries/STM32F10x_StdPeriph_Driver/src/stm32f10x_flash.c **** FlagStatus FLASH_GetFlagStatus(uint32_t FLASH_FLAG)
1358:src/Libraries/STM32F10x_StdPeriph_Driver/src/stm32f10x_flash.c **** {
 461              		.loc 1 1358 1 is_stmt 1 view -0
 462              		.cfi_startproc
 463              		@ args = 0, pretend = 0, frame = 0
 464              		@ frame_needed = 0, uses_anonymous_args = 0
 465              		@ link register save eliminated.
1359:src/Libraries/STM32F10x_StdPeriph_Driver/src/stm32f10x_flash.c ****   FlagStatus bitstatus = RESET;
 466              		.loc 1 1359 3 view .LVU85
1360:src/Libraries/STM32F10x_StdPeriph_Driver/src/stm32f10x_flash.c **** 
1361:src/Libraries/STM32F10x_StdPeriph_Driver/src/stm32f10x_flash.c **** #ifdef STM32F10X_XL
1362:src/Libraries/STM32F10x_StdPeriph_Driver/src/stm32f10x_flash.c ****   /* Check the parameters */
1363:src/Libraries/STM32F10x_StdPeriph_Driver/src/stm32f10x_flash.c ****   assert_param(IS_FLASH_GET_FLAG(FLASH_FLAG)) ;
1364:src/Libraries/STM32F10x_StdPeriph_Driver/src/stm32f10x_flash.c ****   if(FLASH_FLAG == FLASH_FLAG_OPTERR) 
1365:src/Libraries/STM32F10x_StdPeriph_Driver/src/stm32f10x_flash.c ****   {
1366:src/Libraries/STM32F10x_StdPeriph_Driver/src/stm32f10x_flash.c ****     if((FLASH->OBR & FLASH_FLAG_OPTERR) != (uint32_t)RESET)
1367:src/Libraries/STM32F10x_StdPeriph_Driver/src/stm32f10x_flash.c ****     {
1368:src/Libraries/STM32F10x_StdPeriph_Driver/src/stm32f10x_flash.c ****       bitstatus = SET;
1369:src/Libraries/STM32F10x_StdPeriph_Driver/src/stm32f10x_flash.c ****     }
1370:src/Libraries/STM32F10x_StdPeriph_Driver/src/stm32f10x_flash.c ****     else
1371:src/Libraries/STM32F10x_StdPeriph_Driver/src/stm32f10x_flash.c ****     {
1372:src/Libraries/STM32F10x_StdPeriph_Driver/src/stm32f10x_flash.c ****       bitstatus = RESET;
1373:src/Libraries/STM32F10x_StdPeriph_Driver/src/stm32f10x_flash.c ****     }
1374:src/Libraries/STM32F10x_StdPeriph_Driver/src/stm32f10x_flash.c ****   }
1375:src/Libraries/STM32F10x_StdPeriph_Driver/src/stm32f10x_flash.c ****   else
1376:src/Libraries/STM32F10x_StdPeriph_Driver/src/stm32f10x_flash.c ****   {
1377:src/Libraries/STM32F10x_StdPeriph_Driver/src/stm32f10x_flash.c ****     if((FLASH_FLAG & 0x80000000) != 0x0)
1378:src/Libraries/STM32F10x_StdPeriph_Driver/src/stm32f10x_flash.c ****     {
1379:src/Libraries/STM32F10x_StdPeriph_Driver/src/stm32f10x_flash.c ****       if((FLASH->SR2 & FLASH_FLAG) != (uint32_t)RESET)
1380:src/Libraries/STM32F10x_StdPeriph_Driver/src/stm32f10x_flash.c ****       {
1381:src/Libraries/STM32F10x_StdPeriph_Driver/src/stm32f10x_flash.c ****         bitstatus = SET;
1382:src/Libraries/STM32F10x_StdPeriph_Driver/src/stm32f10x_flash.c ****       }
1383:src/Libraries/STM32F10x_StdPeriph_Driver/src/stm32f10x_flash.c ****       else
ARM GAS  C:\Users\dell\AppData\Local\Temp\ccqOk9Jh.s 			page 33


1384:src/Libraries/STM32F10x_StdPeriph_Driver/src/stm32f10x_flash.c ****       {
1385:src/Libraries/STM32F10x_StdPeriph_Driver/src/stm32f10x_flash.c ****         bitstatus = RESET;
1386:src/Libraries/STM32F10x_StdPeriph_Driver/src/stm32f10x_flash.c ****       }
1387:src/Libraries/STM32F10x_StdPeriph_Driver/src/stm32f10x_flash.c ****     }
1388:src/Libraries/STM32F10x_StdPeriph_Driver/src/stm32f10x_flash.c ****     else
1389:src/Libraries/STM32F10x_StdPeriph_Driver/src/stm32f10x_flash.c ****     {
1390:src/Libraries/STM32F10x_StdPeriph_Driver/src/stm32f10x_flash.c ****       if((FLASH->SR & FLASH_FLAG) != (uint32_t)RESET)
1391:src/Libraries/STM32F10x_StdPeriph_Driver/src/stm32f10x_flash.c ****       {
1392:src/Libraries/STM32F10x_StdPeriph_Driver/src/stm32f10x_flash.c ****         bitstatus = SET;
1393:src/Libraries/STM32F10x_StdPeriph_Driver/src/stm32f10x_flash.c ****       }
1394:src/Libraries/STM32F10x_StdPeriph_Driver/src/stm32f10x_flash.c ****       else
1395:src/Libraries/STM32F10x_StdPeriph_Driver/src/stm32f10x_flash.c ****       {
1396:src/Libraries/STM32F10x_StdPeriph_Driver/src/stm32f10x_flash.c ****         bitstatus = RESET;
1397:src/Libraries/STM32F10x_StdPeriph_Driver/src/stm32f10x_flash.c ****       }
1398:src/Libraries/STM32F10x_StdPeriph_Driver/src/stm32f10x_flash.c ****     }
1399:src/Libraries/STM32F10x_StdPeriph_Driver/src/stm32f10x_flash.c ****   }
1400:src/Libraries/STM32F10x_StdPeriph_Driver/src/stm32f10x_flash.c **** #else
1401:src/Libraries/STM32F10x_StdPeriph_Driver/src/stm32f10x_flash.c ****   /* Check the parameters */
1402:src/Libraries/STM32F10x_StdPeriph_Driver/src/stm32f10x_flash.c ****   assert_param(IS_FLASH_GET_FLAG(FLASH_FLAG)) ;
 467              		.loc 1 1402 3 view .LVU86
1403:src/Libraries/STM32F10x_StdPeriph_Driver/src/stm32f10x_flash.c ****   if(FLASH_FLAG == FLASH_FLAG_OPTERR) 
 468              		.loc 1 1403 3 view .LVU87
 469              		.loc 1 1403 5 is_stmt 0 view .LVU88
 470 0000 0128     		cmp	r0, #1
 471 0002 05D0     		beq	.L48
1404:src/Libraries/STM32F10x_StdPeriph_Driver/src/stm32f10x_flash.c ****   {
1405:src/Libraries/STM32F10x_StdPeriph_Driver/src/stm32f10x_flash.c ****     if((FLASH->OBR & FLASH_FLAG_OPTERR) != (uint32_t)RESET)
1406:src/Libraries/STM32F10x_StdPeriph_Driver/src/stm32f10x_flash.c ****     {
1407:src/Libraries/STM32F10x_StdPeriph_Driver/src/stm32f10x_flash.c ****       bitstatus = SET;
1408:src/Libraries/STM32F10x_StdPeriph_Driver/src/stm32f10x_flash.c ****     }
1409:src/Libraries/STM32F10x_StdPeriph_Driver/src/stm32f10x_flash.c ****     else
1410:src/Libraries/STM32F10x_StdPeriph_Driver/src/stm32f10x_flash.c ****     {
1411:src/Libraries/STM32F10x_StdPeriph_Driver/src/stm32f10x_flash.c ****       bitstatus = RESET;
1412:src/Libraries/STM32F10x_StdPeriph_Driver/src/stm32f10x_flash.c ****     }
1413:src/Libraries/STM32F10x_StdPeriph_Driver/src/stm32f10x_flash.c ****   }
1414:src/Libraries/STM32F10x_StdPeriph_Driver/src/stm32f10x_flash.c ****   else
1415:src/Libraries/STM32F10x_StdPeriph_Driver/src/stm32f10x_flash.c ****   {
1416:src/Libraries/STM32F10x_StdPeriph_Driver/src/stm32f10x_flash.c ****    if((FLASH->SR & FLASH_FLAG) != (uint32_t)RESET)
 472              		.loc 1 1416 4 is_stmt 1 view .LVU89
 473              		.loc 1 1416 13 is_stmt 0 view .LVU90
 474 0004 074B     		ldr	r3, .L49
 475 0006 DB68     		ldr	r3, [r3, #12]
 476              		.loc 1 1416 6 view .LVU91
 477 0008 0342     		tst	r3, r0
 478 000a 09D0     		beq	.L47
1417:src/Libraries/STM32F10x_StdPeriph_Driver/src/stm32f10x_flash.c ****     {
1418:src/Libraries/STM32F10x_StdPeriph_Driver/src/stm32f10x_flash.c ****       bitstatus = SET;
 479              		.loc 1 1418 17 view .LVU92
 480 000c 0120     		movs	r0, #1
 481              	.LVL15:
 482              		.loc 1 1418 17 view .LVU93
 483 000e 7047     		bx	lr
 484              	.LVL16:
 485              	.L48:
1405:src/Libraries/STM32F10x_StdPeriph_Driver/src/stm32f10x_flash.c ****     {
 486              		.loc 1 1405 5 is_stmt 1 view .LVU94
1405:src/Libraries/STM32F10x_StdPeriph_Driver/src/stm32f10x_flash.c ****     {
ARM GAS  C:\Users\dell\AppData\Local\Temp\ccqOk9Jh.s 			page 34


 487              		.loc 1 1405 14 is_stmt 0 view .LVU95
 488 0010 044B     		ldr	r3, .L49
 489 0012 DB69     		ldr	r3, [r3, #28]
1405:src/Libraries/STM32F10x_StdPeriph_Driver/src/stm32f10x_flash.c ****     {
 490              		.loc 1 1405 7 view .LVU96
 491 0014 13F0010F 		tst	r3, #1
 492 0018 00D0     		beq	.L46
 493 001a 7047     		bx	lr
 494              	.L46:
1411:src/Libraries/STM32F10x_StdPeriph_Driver/src/stm32f10x_flash.c ****     }
 495              		.loc 1 1411 17 view .LVU97
 496 001c 0020     		movs	r0, #0
 497              	.LVL17:
1411:src/Libraries/STM32F10x_StdPeriph_Driver/src/stm32f10x_flash.c ****     }
 498              		.loc 1 1411 17 view .LVU98
 499 001e 7047     		bx	lr
 500              	.LVL18:
 501              	.L47:
1419:src/Libraries/STM32F10x_StdPeriph_Driver/src/stm32f10x_flash.c ****     }
1420:src/Libraries/STM32F10x_StdPeriph_Driver/src/stm32f10x_flash.c ****     else
1421:src/Libraries/STM32F10x_StdPeriph_Driver/src/stm32f10x_flash.c ****     {
1422:src/Libraries/STM32F10x_StdPeriph_Driver/src/stm32f10x_flash.c ****       bitstatus = RESET;
 502              		.loc 1 1422 17 view .LVU99
 503 0020 0020     		movs	r0, #0
 504              	.LVL19:
1423:src/Libraries/STM32F10x_StdPeriph_Driver/src/stm32f10x_flash.c ****     }
1424:src/Libraries/STM32F10x_StdPeriph_Driver/src/stm32f10x_flash.c ****   }
1425:src/Libraries/STM32F10x_StdPeriph_Driver/src/stm32f10x_flash.c **** #endif /* STM32F10X_XL */
1426:src/Libraries/STM32F10x_StdPeriph_Driver/src/stm32f10x_flash.c **** 
1427:src/Libraries/STM32F10x_StdPeriph_Driver/src/stm32f10x_flash.c ****   /* Return the new state of FLASH_FLAG (SET or RESET) */
1428:src/Libraries/STM32F10x_StdPeriph_Driver/src/stm32f10x_flash.c ****   return bitstatus;
 505              		.loc 1 1428 3 is_stmt 1 view .LVU100
1429:src/Libraries/STM32F10x_StdPeriph_Driver/src/stm32f10x_flash.c **** }
 506              		.loc 1 1429 1 is_stmt 0 view .LVU101
 507 0022 7047     		bx	lr
 508              	.L50:
 509              		.align	2
 510              	.L49:
 511 0024 00200240 		.word	1073881088
 512              		.cfi_endproc
 513              	.LFE51:
 515              		.section	.text.FLASH_ClearFlag,"ax",%progbits
 516              		.align	1
 517              		.global	FLASH_ClearFlag
 518              		.syntax unified
 519              		.thumb
 520              		.thumb_func
 521              		.fpu softvfp
 523              	FLASH_ClearFlag:
 524              	.LVL20:
 525              	.LFB52:
1430:src/Libraries/STM32F10x_StdPeriph_Driver/src/stm32f10x_flash.c **** 
1431:src/Libraries/STM32F10x_StdPeriph_Driver/src/stm32f10x_flash.c **** /**
1432:src/Libraries/STM32F10x_StdPeriph_Driver/src/stm32f10x_flash.c ****   * @brief  Clears the FLASH's pending flags.
1433:src/Libraries/STM32F10x_StdPeriph_Driver/src/stm32f10x_flash.c ****   * @note   This function can be used for all STM32F10x devices.
1434:src/Libraries/STM32F10x_StdPeriph_Driver/src/stm32f10x_flash.c ****   *         - For STM32F10X_XL devices, this function clears Bank1 or Bank2s pending flags
1435:src/Libraries/STM32F10x_StdPeriph_Driver/src/stm32f10x_flash.c ****   *         - For other devices, it clears Bank1s pending flags.
ARM GAS  C:\Users\dell\AppData\Local\Temp\ccqOk9Jh.s 			page 35


1436:src/Libraries/STM32F10x_StdPeriph_Driver/src/stm32f10x_flash.c ****   * @param  FLASH_FLAG: specifies the FLASH flags to clear.
1437:src/Libraries/STM32F10x_StdPeriph_Driver/src/stm32f10x_flash.c ****   *   This parameter can be any combination of the following values:         
1438:src/Libraries/STM32F10x_StdPeriph_Driver/src/stm32f10x_flash.c ****   *     @arg FLASH_FLAG_PGERR: FLASH Program error flag       
1439:src/Libraries/STM32F10x_StdPeriph_Driver/src/stm32f10x_flash.c ****   *     @arg FLASH_FLAG_WRPRTERR: FLASH Write protected error flag      
1440:src/Libraries/STM32F10x_StdPeriph_Driver/src/stm32f10x_flash.c ****   *     @arg FLASH_FLAG_EOP: FLASH End of Operation flag           
1441:src/Libraries/STM32F10x_StdPeriph_Driver/src/stm32f10x_flash.c ****   * @retval None
1442:src/Libraries/STM32F10x_StdPeriph_Driver/src/stm32f10x_flash.c ****   */
1443:src/Libraries/STM32F10x_StdPeriph_Driver/src/stm32f10x_flash.c **** void FLASH_ClearFlag(uint32_t FLASH_FLAG)
1444:src/Libraries/STM32F10x_StdPeriph_Driver/src/stm32f10x_flash.c **** {
 526              		.loc 1 1444 1 is_stmt 1 view -0
 527              		.cfi_startproc
 528              		@ args = 0, pretend = 0, frame = 0
 529              		@ frame_needed = 0, uses_anonymous_args = 0
 530              		@ link register save eliminated.
1445:src/Libraries/STM32F10x_StdPeriph_Driver/src/stm32f10x_flash.c **** #ifdef STM32F10X_XL
1446:src/Libraries/STM32F10x_StdPeriph_Driver/src/stm32f10x_flash.c ****   /* Check the parameters */
1447:src/Libraries/STM32F10x_StdPeriph_Driver/src/stm32f10x_flash.c ****   assert_param(IS_FLASH_CLEAR_FLAG(FLASH_FLAG)) ;
1448:src/Libraries/STM32F10x_StdPeriph_Driver/src/stm32f10x_flash.c **** 
1449:src/Libraries/STM32F10x_StdPeriph_Driver/src/stm32f10x_flash.c ****   if((FLASH_FLAG & 0x80000000) != 0x0)
1450:src/Libraries/STM32F10x_StdPeriph_Driver/src/stm32f10x_flash.c ****   {
1451:src/Libraries/STM32F10x_StdPeriph_Driver/src/stm32f10x_flash.c ****     /* Clear the flags */
1452:src/Libraries/STM32F10x_StdPeriph_Driver/src/stm32f10x_flash.c ****     FLASH->SR2 = FLASH_FLAG;
1453:src/Libraries/STM32F10x_StdPeriph_Driver/src/stm32f10x_flash.c ****   }
1454:src/Libraries/STM32F10x_StdPeriph_Driver/src/stm32f10x_flash.c ****   else
1455:src/Libraries/STM32F10x_StdPeriph_Driver/src/stm32f10x_flash.c ****   {
1456:src/Libraries/STM32F10x_StdPeriph_Driver/src/stm32f10x_flash.c ****     /* Clear the flags */
1457:src/Libraries/STM32F10x_StdPeriph_Driver/src/stm32f10x_flash.c ****     FLASH->SR = FLASH_FLAG;
1458:src/Libraries/STM32F10x_StdPeriph_Driver/src/stm32f10x_flash.c ****   }  
1459:src/Libraries/STM32F10x_StdPeriph_Driver/src/stm32f10x_flash.c **** 
1460:src/Libraries/STM32F10x_StdPeriph_Driver/src/stm32f10x_flash.c **** #else
1461:src/Libraries/STM32F10x_StdPeriph_Driver/src/stm32f10x_flash.c ****   /* Check the parameters */
1462:src/Libraries/STM32F10x_StdPeriph_Driver/src/stm32f10x_flash.c ****   assert_param(IS_FLASH_CLEAR_FLAG(FLASH_FLAG)) ;
 531              		.loc 1 1462 3 view .LVU103
1463:src/Libraries/STM32F10x_StdPeriph_Driver/src/stm32f10x_flash.c ****   
1464:src/Libraries/STM32F10x_StdPeriph_Driver/src/stm32f10x_flash.c ****   /* Clear the flags */
1465:src/Libraries/STM32F10x_StdPeriph_Driver/src/stm32f10x_flash.c ****   FLASH->SR = FLASH_FLAG;
 532              		.loc 1 1465 3 view .LVU104
 533              		.loc 1 1465 13 is_stmt 0 view .LVU105
 534 0000 014B     		ldr	r3, .L52
 535 0002 D860     		str	r0, [r3, #12]
1466:src/Libraries/STM32F10x_StdPeriph_Driver/src/stm32f10x_flash.c **** #endif /* STM32F10X_XL */
1467:src/Libraries/STM32F10x_StdPeriph_Driver/src/stm32f10x_flash.c **** }
 536              		.loc 1 1467 1 view .LVU106
 537 0004 7047     		bx	lr
 538              	.L53:
 539 0006 00BF     		.align	2
 540              	.L52:
 541 0008 00200240 		.word	1073881088
 542              		.cfi_endproc
 543              	.LFE52:
 545              		.section	.text.FLASH_GetStatus,"ax",%progbits
 546              		.align	1
 547              		.global	FLASH_GetStatus
 548              		.syntax unified
 549              		.thumb
 550              		.thumb_func
 551              		.fpu softvfp
ARM GAS  C:\Users\dell\AppData\Local\Temp\ccqOk9Jh.s 			page 36


 553              	FLASH_GetStatus:
 554              	.LFB53:
1468:src/Libraries/STM32F10x_StdPeriph_Driver/src/stm32f10x_flash.c **** 
1469:src/Libraries/STM32F10x_StdPeriph_Driver/src/stm32f10x_flash.c **** /**
1470:src/Libraries/STM32F10x_StdPeriph_Driver/src/stm32f10x_flash.c ****   * @brief  Returns the FLASH Status.
1471:src/Libraries/STM32F10x_StdPeriph_Driver/src/stm32f10x_flash.c ****   * @note   This function can be used for all STM32F10x devices, it is equivalent
1472:src/Libraries/STM32F10x_StdPeriph_Driver/src/stm32f10x_flash.c ****   *         to FLASH_GetBank1Status function.
1473:src/Libraries/STM32F10x_StdPeriph_Driver/src/stm32f10x_flash.c ****   * @param  None
1474:src/Libraries/STM32F10x_StdPeriph_Driver/src/stm32f10x_flash.c ****   * @retval FLASH Status: The returned value can be: FLASH_BUSY, FLASH_ERROR_PG,
1475:src/Libraries/STM32F10x_StdPeriph_Driver/src/stm32f10x_flash.c ****   *         FLASH_ERROR_WRP or FLASH_COMPLETE
1476:src/Libraries/STM32F10x_StdPeriph_Driver/src/stm32f10x_flash.c ****   */
1477:src/Libraries/STM32F10x_StdPeriph_Driver/src/stm32f10x_flash.c **** FLASH_Status FLASH_GetStatus(void)
1478:src/Libraries/STM32F10x_StdPeriph_Driver/src/stm32f10x_flash.c **** {
 555              		.loc 1 1478 1 is_stmt 1 view -0
 556              		.cfi_startproc
 557              		@ args = 0, pretend = 0, frame = 0
 558              		@ frame_needed = 0, uses_anonymous_args = 0
 559              		@ link register save eliminated.
1479:src/Libraries/STM32F10x_StdPeriph_Driver/src/stm32f10x_flash.c ****   FLASH_Status flashstatus = FLASH_COMPLETE;
 560              		.loc 1 1479 3 view .LVU108
 561              	.LVL21:
1480:src/Libraries/STM32F10x_StdPeriph_Driver/src/stm32f10x_flash.c ****   
1481:src/Libraries/STM32F10x_StdPeriph_Driver/src/stm32f10x_flash.c ****   if((FLASH->SR & FLASH_FLAG_BSY) == FLASH_FLAG_BSY) 
 562              		.loc 1 1481 3 view .LVU109
 563              		.loc 1 1481 12 is_stmt 0 view .LVU110
 564 0000 0B4B     		ldr	r3, .L59
 565 0002 DB68     		ldr	r3, [r3, #12]
 566              		.loc 1 1481 5 view .LVU111
 567 0004 13F0010F 		tst	r3, #1
 568 0008 0BD1     		bne	.L56
1482:src/Libraries/STM32F10x_StdPeriph_Driver/src/stm32f10x_flash.c ****   {
1483:src/Libraries/STM32F10x_StdPeriph_Driver/src/stm32f10x_flash.c ****     flashstatus = FLASH_BUSY;
1484:src/Libraries/STM32F10x_StdPeriph_Driver/src/stm32f10x_flash.c ****   }
1485:src/Libraries/STM32F10x_StdPeriph_Driver/src/stm32f10x_flash.c ****   else 
1486:src/Libraries/STM32F10x_StdPeriph_Driver/src/stm32f10x_flash.c ****   {  
1487:src/Libraries/STM32F10x_StdPeriph_Driver/src/stm32f10x_flash.c ****     if((FLASH->SR & FLASH_FLAG_PGERR) != 0)
 569              		.loc 1 1487 5 is_stmt 1 view .LVU112
 570              		.loc 1 1487 14 is_stmt 0 view .LVU113
 571 000a 094B     		ldr	r3, .L59
 572 000c DB68     		ldr	r3, [r3, #12]
 573              		.loc 1 1487 7 view .LVU114
 574 000e 13F0040F 		tst	r3, #4
 575 0012 08D1     		bne	.L57
1488:src/Libraries/STM32F10x_StdPeriph_Driver/src/stm32f10x_flash.c ****     { 
1489:src/Libraries/STM32F10x_StdPeriph_Driver/src/stm32f10x_flash.c ****       flashstatus = FLASH_ERROR_PG;
1490:src/Libraries/STM32F10x_StdPeriph_Driver/src/stm32f10x_flash.c ****     }
1491:src/Libraries/STM32F10x_StdPeriph_Driver/src/stm32f10x_flash.c ****     else 
1492:src/Libraries/STM32F10x_StdPeriph_Driver/src/stm32f10x_flash.c ****     {
1493:src/Libraries/STM32F10x_StdPeriph_Driver/src/stm32f10x_flash.c ****       if((FLASH->SR & FLASH_FLAG_WRPRTERR) != 0 )
 576              		.loc 1 1493 7 is_stmt 1 view .LVU115
 577              		.loc 1 1493 16 is_stmt 0 view .LVU116
 578 0014 064B     		ldr	r3, .L59
 579 0016 DB68     		ldr	r3, [r3, #12]
 580              		.loc 1 1493 9 view .LVU117
 581 0018 13F0100F 		tst	r3, #16
 582 001c 05D0     		beq	.L58
1494:src/Libraries/STM32F10x_StdPeriph_Driver/src/stm32f10x_flash.c ****       {
ARM GAS  C:\Users\dell\AppData\Local\Temp\ccqOk9Jh.s 			page 37


1495:src/Libraries/STM32F10x_StdPeriph_Driver/src/stm32f10x_flash.c ****         flashstatus = FLASH_ERROR_WRP;
 583              		.loc 1 1495 21 view .LVU118
 584 001e 0320     		movs	r0, #3
 585 0020 7047     		bx	lr
 586              	.L56:
1483:src/Libraries/STM32F10x_StdPeriph_Driver/src/stm32f10x_flash.c ****   }
 587              		.loc 1 1483 17 view .LVU119
 588 0022 0120     		movs	r0, #1
 589 0024 7047     		bx	lr
 590              	.L57:
1489:src/Libraries/STM32F10x_StdPeriph_Driver/src/stm32f10x_flash.c ****     }
 591              		.loc 1 1489 19 view .LVU120
 592 0026 0220     		movs	r0, #2
 593 0028 7047     		bx	lr
 594              	.L58:
1496:src/Libraries/STM32F10x_StdPeriph_Driver/src/stm32f10x_flash.c ****       }
1497:src/Libraries/STM32F10x_StdPeriph_Driver/src/stm32f10x_flash.c ****       else
1498:src/Libraries/STM32F10x_StdPeriph_Driver/src/stm32f10x_flash.c ****       {
1499:src/Libraries/STM32F10x_StdPeriph_Driver/src/stm32f10x_flash.c ****         flashstatus = FLASH_COMPLETE;
 595              		.loc 1 1499 21 view .LVU121
 596 002a 0420     		movs	r0, #4
 597              	.LVL22:
1500:src/Libraries/STM32F10x_StdPeriph_Driver/src/stm32f10x_flash.c ****       }
1501:src/Libraries/STM32F10x_StdPeriph_Driver/src/stm32f10x_flash.c ****     }
1502:src/Libraries/STM32F10x_StdPeriph_Driver/src/stm32f10x_flash.c ****   }
1503:src/Libraries/STM32F10x_StdPeriph_Driver/src/stm32f10x_flash.c ****   /* Return the Flash Status */
1504:src/Libraries/STM32F10x_StdPeriph_Driver/src/stm32f10x_flash.c ****   return flashstatus;
 598              		.loc 1 1504 3 is_stmt 1 view .LVU122
1505:src/Libraries/STM32F10x_StdPeriph_Driver/src/stm32f10x_flash.c **** }
 599              		.loc 1 1505 1 is_stmt 0 view .LVU123
 600 002c 7047     		bx	lr
 601              	.L60:
 602 002e 00BF     		.align	2
 603              	.L59:
 604 0030 00200240 		.word	1073881088
 605              		.cfi_endproc
 606              	.LFE53:
 608              		.section	.text.FLASH_GetBank1Status,"ax",%progbits
 609              		.align	1
 610              		.global	FLASH_GetBank1Status
 611              		.syntax unified
 612              		.thumb
 613              		.thumb_func
 614              		.fpu softvfp
 616              	FLASH_GetBank1Status:
 617              	.LFB54:
1506:src/Libraries/STM32F10x_StdPeriph_Driver/src/stm32f10x_flash.c **** 
1507:src/Libraries/STM32F10x_StdPeriph_Driver/src/stm32f10x_flash.c **** /**
1508:src/Libraries/STM32F10x_StdPeriph_Driver/src/stm32f10x_flash.c ****   * @brief  Returns the FLASH Bank1 Status.
1509:src/Libraries/STM32F10x_StdPeriph_Driver/src/stm32f10x_flash.c ****   * @note   This function can be used for all STM32F10x devices, it is equivalent
1510:src/Libraries/STM32F10x_StdPeriph_Driver/src/stm32f10x_flash.c ****   *         to FLASH_GetStatus function.
1511:src/Libraries/STM32F10x_StdPeriph_Driver/src/stm32f10x_flash.c ****   * @param  None
1512:src/Libraries/STM32F10x_StdPeriph_Driver/src/stm32f10x_flash.c ****   * @retval FLASH Status: The returned value can be: FLASH_BUSY, FLASH_ERROR_PG,
1513:src/Libraries/STM32F10x_StdPeriph_Driver/src/stm32f10x_flash.c ****   *         FLASH_ERROR_WRP or FLASH_COMPLETE
1514:src/Libraries/STM32F10x_StdPeriph_Driver/src/stm32f10x_flash.c ****   */
1515:src/Libraries/STM32F10x_StdPeriph_Driver/src/stm32f10x_flash.c **** FLASH_Status FLASH_GetBank1Status(void)
1516:src/Libraries/STM32F10x_StdPeriph_Driver/src/stm32f10x_flash.c **** {
ARM GAS  C:\Users\dell\AppData\Local\Temp\ccqOk9Jh.s 			page 38


 618              		.loc 1 1516 1 is_stmt 1 view -0
 619              		.cfi_startproc
 620              		@ args = 0, pretend = 0, frame = 0
 621              		@ frame_needed = 0, uses_anonymous_args = 0
 622              		@ link register save eliminated.
1517:src/Libraries/STM32F10x_StdPeriph_Driver/src/stm32f10x_flash.c ****   FLASH_Status flashstatus = FLASH_COMPLETE;
 623              		.loc 1 1517 3 view .LVU125
 624              	.LVL23:
1518:src/Libraries/STM32F10x_StdPeriph_Driver/src/stm32f10x_flash.c ****   
1519:src/Libraries/STM32F10x_StdPeriph_Driver/src/stm32f10x_flash.c ****   if((FLASH->SR & FLASH_FLAG_BANK1_BSY) == FLASH_FLAG_BSY) 
 625              		.loc 1 1519 3 view .LVU126
 626              		.loc 1 1519 12 is_stmt 0 view .LVU127
 627 0000 0B4B     		ldr	r3, .L66
 628 0002 DB68     		ldr	r3, [r3, #12]
 629              		.loc 1 1519 5 view .LVU128
 630 0004 13F0010F 		tst	r3, #1
 631 0008 0BD1     		bne	.L63
1520:src/Libraries/STM32F10x_StdPeriph_Driver/src/stm32f10x_flash.c ****   {
1521:src/Libraries/STM32F10x_StdPeriph_Driver/src/stm32f10x_flash.c ****     flashstatus = FLASH_BUSY;
1522:src/Libraries/STM32F10x_StdPeriph_Driver/src/stm32f10x_flash.c ****   }
1523:src/Libraries/STM32F10x_StdPeriph_Driver/src/stm32f10x_flash.c ****   else 
1524:src/Libraries/STM32F10x_StdPeriph_Driver/src/stm32f10x_flash.c ****   {  
1525:src/Libraries/STM32F10x_StdPeriph_Driver/src/stm32f10x_flash.c ****     if((FLASH->SR & FLASH_FLAG_BANK1_PGERR) != 0)
 632              		.loc 1 1525 5 is_stmt 1 view .LVU129
 633              		.loc 1 1525 14 is_stmt 0 view .LVU130
 634 000a 094B     		ldr	r3, .L66
 635 000c DB68     		ldr	r3, [r3, #12]
 636              		.loc 1 1525 7 view .LVU131
 637 000e 13F0040F 		tst	r3, #4
 638 0012 08D1     		bne	.L64
1526:src/Libraries/STM32F10x_StdPeriph_Driver/src/stm32f10x_flash.c ****     { 
1527:src/Libraries/STM32F10x_StdPeriph_Driver/src/stm32f10x_flash.c ****       flashstatus = FLASH_ERROR_PG;
1528:src/Libraries/STM32F10x_StdPeriph_Driver/src/stm32f10x_flash.c ****     }
1529:src/Libraries/STM32F10x_StdPeriph_Driver/src/stm32f10x_flash.c ****     else 
1530:src/Libraries/STM32F10x_StdPeriph_Driver/src/stm32f10x_flash.c ****     {
1531:src/Libraries/STM32F10x_StdPeriph_Driver/src/stm32f10x_flash.c ****       if((FLASH->SR & FLASH_FLAG_BANK1_WRPRTERR) != 0 )
 639              		.loc 1 1531 7 is_stmt 1 view .LVU132
 640              		.loc 1 1531 16 is_stmt 0 view .LVU133
 641 0014 064B     		ldr	r3, .L66
 642 0016 DB68     		ldr	r3, [r3, #12]
 643              		.loc 1 1531 9 view .LVU134
 644 0018 13F0100F 		tst	r3, #16
 645 001c 05D0     		beq	.L65
1532:src/Libraries/STM32F10x_StdPeriph_Driver/src/stm32f10x_flash.c ****       {
1533:src/Libraries/STM32F10x_StdPeriph_Driver/src/stm32f10x_flash.c ****         flashstatus = FLASH_ERROR_WRP;
 646              		.loc 1 1533 21 view .LVU135
 647 001e 0320     		movs	r0, #3
 648 0020 7047     		bx	lr
 649              	.L63:
1521:src/Libraries/STM32F10x_StdPeriph_Driver/src/stm32f10x_flash.c ****   }
 650              		.loc 1 1521 17 view .LVU136
 651 0022 0120     		movs	r0, #1
 652 0024 7047     		bx	lr
 653              	.L64:
1527:src/Libraries/STM32F10x_StdPeriph_Driver/src/stm32f10x_flash.c ****     }
 654              		.loc 1 1527 19 view .LVU137
 655 0026 0220     		movs	r0, #2
ARM GAS  C:\Users\dell\AppData\Local\Temp\ccqOk9Jh.s 			page 39


 656 0028 7047     		bx	lr
 657              	.L65:
1534:src/Libraries/STM32F10x_StdPeriph_Driver/src/stm32f10x_flash.c ****       }
1535:src/Libraries/STM32F10x_StdPeriph_Driver/src/stm32f10x_flash.c ****       else
1536:src/Libraries/STM32F10x_StdPeriph_Driver/src/stm32f10x_flash.c ****       {
1537:src/Libraries/STM32F10x_StdPeriph_Driver/src/stm32f10x_flash.c ****         flashstatus = FLASH_COMPLETE;
 658              		.loc 1 1537 21 view .LVU138
 659 002a 0420     		movs	r0, #4
 660              	.LVL24:
1538:src/Libraries/STM32F10x_StdPeriph_Driver/src/stm32f10x_flash.c ****       }
1539:src/Libraries/STM32F10x_StdPeriph_Driver/src/stm32f10x_flash.c ****     }
1540:src/Libraries/STM32F10x_StdPeriph_Driver/src/stm32f10x_flash.c ****   }
1541:src/Libraries/STM32F10x_StdPeriph_Driver/src/stm32f10x_flash.c ****   /* Return the Flash Status */
1542:src/Libraries/STM32F10x_StdPeriph_Driver/src/stm32f10x_flash.c ****   return flashstatus;
 661              		.loc 1 1542 3 is_stmt 1 view .LVU139
1543:src/Libraries/STM32F10x_StdPeriph_Driver/src/stm32f10x_flash.c **** }
 662              		.loc 1 1543 1 is_stmt 0 view .LVU140
 663 002c 7047     		bx	lr
 664              	.L67:
 665 002e 00BF     		.align	2
 666              	.L66:
 667 0030 00200240 		.word	1073881088
 668              		.cfi_endproc
 669              	.LFE54:
 671              		.section	.text.FLASH_WaitForLastOperation,"ax",%progbits
 672              		.align	1
 673              		.global	FLASH_WaitForLastOperation
 674              		.syntax unified
 675              		.thumb
 676              		.thumb_func
 677              		.fpu softvfp
 679              	FLASH_WaitForLastOperation:
 680              	.LVL25:
 681              	.LFB55:
1544:src/Libraries/STM32F10x_StdPeriph_Driver/src/stm32f10x_flash.c **** 
1545:src/Libraries/STM32F10x_StdPeriph_Driver/src/stm32f10x_flash.c **** #ifdef STM32F10X_XL
1546:src/Libraries/STM32F10x_StdPeriph_Driver/src/stm32f10x_flash.c **** /**
1547:src/Libraries/STM32F10x_StdPeriph_Driver/src/stm32f10x_flash.c ****   * @brief  Returns the FLASH Bank2 Status.
1548:src/Libraries/STM32F10x_StdPeriph_Driver/src/stm32f10x_flash.c ****   * @note   This function can be used for STM32F10x_XL density devices.
1549:src/Libraries/STM32F10x_StdPeriph_Driver/src/stm32f10x_flash.c ****   * @param  None
1550:src/Libraries/STM32F10x_StdPeriph_Driver/src/stm32f10x_flash.c ****   * @retval FLASH Status: The returned value can be: FLASH_BUSY, FLASH_ERROR_PG,
1551:src/Libraries/STM32F10x_StdPeriph_Driver/src/stm32f10x_flash.c ****   *        FLASH_ERROR_WRP or FLASH_COMPLETE
1552:src/Libraries/STM32F10x_StdPeriph_Driver/src/stm32f10x_flash.c ****   */
1553:src/Libraries/STM32F10x_StdPeriph_Driver/src/stm32f10x_flash.c **** FLASH_Status FLASH_GetBank2Status(void)
1554:src/Libraries/STM32F10x_StdPeriph_Driver/src/stm32f10x_flash.c **** {
1555:src/Libraries/STM32F10x_StdPeriph_Driver/src/stm32f10x_flash.c ****   FLASH_Status flashstatus = FLASH_COMPLETE;
1556:src/Libraries/STM32F10x_StdPeriph_Driver/src/stm32f10x_flash.c ****   
1557:src/Libraries/STM32F10x_StdPeriph_Driver/src/stm32f10x_flash.c ****   if((FLASH->SR2 & (FLASH_FLAG_BANK2_BSY & 0x7FFFFFFF)) == (FLASH_FLAG_BANK2_BSY & 0x7FFFFFFF)) 
1558:src/Libraries/STM32F10x_StdPeriph_Driver/src/stm32f10x_flash.c ****   {
1559:src/Libraries/STM32F10x_StdPeriph_Driver/src/stm32f10x_flash.c ****     flashstatus = FLASH_BUSY;
1560:src/Libraries/STM32F10x_StdPeriph_Driver/src/stm32f10x_flash.c ****   }
1561:src/Libraries/STM32F10x_StdPeriph_Driver/src/stm32f10x_flash.c ****   else 
1562:src/Libraries/STM32F10x_StdPeriph_Driver/src/stm32f10x_flash.c ****   {  
1563:src/Libraries/STM32F10x_StdPeriph_Driver/src/stm32f10x_flash.c ****     if((FLASH->SR2 & (FLASH_FLAG_BANK2_PGERR & 0x7FFFFFFF)) != 0)
1564:src/Libraries/STM32F10x_StdPeriph_Driver/src/stm32f10x_flash.c ****     { 
1565:src/Libraries/STM32F10x_StdPeriph_Driver/src/stm32f10x_flash.c ****       flashstatus = FLASH_ERROR_PG;
1566:src/Libraries/STM32F10x_StdPeriph_Driver/src/stm32f10x_flash.c ****     }
ARM GAS  C:\Users\dell\AppData\Local\Temp\ccqOk9Jh.s 			page 40


1567:src/Libraries/STM32F10x_StdPeriph_Driver/src/stm32f10x_flash.c ****     else 
1568:src/Libraries/STM32F10x_StdPeriph_Driver/src/stm32f10x_flash.c ****     {
1569:src/Libraries/STM32F10x_StdPeriph_Driver/src/stm32f10x_flash.c ****       if((FLASH->SR2 & (FLASH_FLAG_BANK2_WRPRTERR & 0x7FFFFFFF)) != 0 )
1570:src/Libraries/STM32F10x_StdPeriph_Driver/src/stm32f10x_flash.c ****       {
1571:src/Libraries/STM32F10x_StdPeriph_Driver/src/stm32f10x_flash.c ****         flashstatus = FLASH_ERROR_WRP;
1572:src/Libraries/STM32F10x_StdPeriph_Driver/src/stm32f10x_flash.c ****       }
1573:src/Libraries/STM32F10x_StdPeriph_Driver/src/stm32f10x_flash.c ****       else
1574:src/Libraries/STM32F10x_StdPeriph_Driver/src/stm32f10x_flash.c ****       {
1575:src/Libraries/STM32F10x_StdPeriph_Driver/src/stm32f10x_flash.c ****         flashstatus = FLASH_COMPLETE;
1576:src/Libraries/STM32F10x_StdPeriph_Driver/src/stm32f10x_flash.c ****       }
1577:src/Libraries/STM32F10x_StdPeriph_Driver/src/stm32f10x_flash.c ****     }
1578:src/Libraries/STM32F10x_StdPeriph_Driver/src/stm32f10x_flash.c ****   }
1579:src/Libraries/STM32F10x_StdPeriph_Driver/src/stm32f10x_flash.c ****   /* Return the Flash Status */
1580:src/Libraries/STM32F10x_StdPeriph_Driver/src/stm32f10x_flash.c ****   return flashstatus;
1581:src/Libraries/STM32F10x_StdPeriph_Driver/src/stm32f10x_flash.c **** }
1582:src/Libraries/STM32F10x_StdPeriph_Driver/src/stm32f10x_flash.c **** #endif /* STM32F10X_XL */
1583:src/Libraries/STM32F10x_StdPeriph_Driver/src/stm32f10x_flash.c **** /**
1584:src/Libraries/STM32F10x_StdPeriph_Driver/src/stm32f10x_flash.c ****   * @brief  Waits for a Flash operation to complete or a TIMEOUT to occur.
1585:src/Libraries/STM32F10x_StdPeriph_Driver/src/stm32f10x_flash.c ****   * @note   This function can be used for all STM32F10x devices, 
1586:src/Libraries/STM32F10x_StdPeriph_Driver/src/stm32f10x_flash.c ****   *         it is equivalent to FLASH_WaitForLastBank1Operation.
1587:src/Libraries/STM32F10x_StdPeriph_Driver/src/stm32f10x_flash.c ****   *         - For STM32F10X_XL devices this function waits for a Bank1 Flash operation
1588:src/Libraries/STM32F10x_StdPeriph_Driver/src/stm32f10x_flash.c ****   *           to complete or a TIMEOUT to occur.
1589:src/Libraries/STM32F10x_StdPeriph_Driver/src/stm32f10x_flash.c ****   *         - For all other devices it waits for a Flash operation to complete 
1590:src/Libraries/STM32F10x_StdPeriph_Driver/src/stm32f10x_flash.c ****   *           or a TIMEOUT to occur.
1591:src/Libraries/STM32F10x_StdPeriph_Driver/src/stm32f10x_flash.c ****   * @param  Timeout: FLASH programming Timeout
1592:src/Libraries/STM32F10x_StdPeriph_Driver/src/stm32f10x_flash.c ****   * @retval FLASH Status: The returned value can be: FLASH_ERROR_PG,
1593:src/Libraries/STM32F10x_StdPeriph_Driver/src/stm32f10x_flash.c ****   *         FLASH_ERROR_WRP, FLASH_COMPLETE or FLASH_TIMEOUT.
1594:src/Libraries/STM32F10x_StdPeriph_Driver/src/stm32f10x_flash.c ****   */
1595:src/Libraries/STM32F10x_StdPeriph_Driver/src/stm32f10x_flash.c **** FLASH_Status FLASH_WaitForLastOperation(uint32_t Timeout)
1596:src/Libraries/STM32F10x_StdPeriph_Driver/src/stm32f10x_flash.c **** { 
 682              		.loc 1 1596 1 is_stmt 1 view -0
 683              		.cfi_startproc
 684              		@ args = 0, pretend = 0, frame = 0
 685              		@ frame_needed = 0, uses_anonymous_args = 0
 686              		.loc 1 1596 1 is_stmt 0 view .LVU142
 687 0000 10B5     		push	{r4, lr}
 688              	.LCFI0:
 689              		.cfi_def_cfa_offset 8
 690              		.cfi_offset 4, -8
 691              		.cfi_offset 14, -4
 692 0002 0446     		mov	r4, r0
1597:src/Libraries/STM32F10x_StdPeriph_Driver/src/stm32f10x_flash.c ****   FLASH_Status status = FLASH_COMPLETE;
 693              		.loc 1 1597 3 is_stmt 1 view .LVU143
 694              	.LVL26:
1598:src/Libraries/STM32F10x_StdPeriph_Driver/src/stm32f10x_flash.c ****    
1599:src/Libraries/STM32F10x_StdPeriph_Driver/src/stm32f10x_flash.c ****   /* Check for the Flash Status */
1600:src/Libraries/STM32F10x_StdPeriph_Driver/src/stm32f10x_flash.c ****   status = FLASH_GetBank1Status();
 695              		.loc 1 1600 3 view .LVU144
 696              		.loc 1 1600 12 is_stmt 0 view .LVU145
 697 0004 FFF7FEFF 		bl	FLASH_GetBank1Status
 698              	.LVL27:
1601:src/Libraries/STM32F10x_StdPeriph_Driver/src/stm32f10x_flash.c ****   /* Wait for a Flash operation to complete or a TIMEOUT to occur */
1602:src/Libraries/STM32F10x_StdPeriph_Driver/src/stm32f10x_flash.c ****   while((status == FLASH_BUSY) && (Timeout != 0x00))
 699              		.loc 1 1602 3 is_stmt 1 view .LVU146
 700              	.L69:
 701              		.loc 1 1602 8 view .LVU147
 702 0008 0128     		cmp	r0, #1
ARM GAS  C:\Users\dell\AppData\Local\Temp\ccqOk9Jh.s 			page 41


 703 000a 04D1     		bne	.L70
 704              		.loc 1 1602 32 is_stmt 0 discriminator 1 view .LVU148
 705 000c 1CB1     		cbz	r4, .L70
1603:src/Libraries/STM32F10x_StdPeriph_Driver/src/stm32f10x_flash.c ****   {
1604:src/Libraries/STM32F10x_StdPeriph_Driver/src/stm32f10x_flash.c ****     status = FLASH_GetBank1Status();
 706              		.loc 1 1604 5 is_stmt 1 view .LVU149
 707              		.loc 1 1604 14 is_stmt 0 view .LVU150
 708 000e FFF7FEFF 		bl	FLASH_GetBank1Status
 709              	.LVL28:
1605:src/Libraries/STM32F10x_StdPeriph_Driver/src/stm32f10x_flash.c ****     Timeout--;
 710              		.loc 1 1605 5 is_stmt 1 view .LVU151
 711              		.loc 1 1605 12 is_stmt 0 view .LVU152
 712 0012 013C     		subs	r4, r4, #1
 713              	.LVL29:
 714              		.loc 1 1605 12 view .LVU153
 715 0014 F8E7     		b	.L69
 716              	.L70:
1606:src/Libraries/STM32F10x_StdPeriph_Driver/src/stm32f10x_flash.c ****   }
1607:src/Libraries/STM32F10x_StdPeriph_Driver/src/stm32f10x_flash.c ****   if(Timeout == 0x00 )
 717              		.loc 1 1607 3 is_stmt 1 view .LVU154
 718              		.loc 1 1607 5 is_stmt 0 view .LVU155
 719 0016 04B1     		cbz	r4, .L75
 720              	.LVL30:
 721              	.L72:
1608:src/Libraries/STM32F10x_StdPeriph_Driver/src/stm32f10x_flash.c ****   {
1609:src/Libraries/STM32F10x_StdPeriph_Driver/src/stm32f10x_flash.c ****     status = FLASH_TIMEOUT;
1610:src/Libraries/STM32F10x_StdPeriph_Driver/src/stm32f10x_flash.c ****   }
1611:src/Libraries/STM32F10x_StdPeriph_Driver/src/stm32f10x_flash.c ****   /* Return the operation status */
1612:src/Libraries/STM32F10x_StdPeriph_Driver/src/stm32f10x_flash.c ****   return status;
 722              		.loc 1 1612 3 is_stmt 1 view .LVU156
1613:src/Libraries/STM32F10x_StdPeriph_Driver/src/stm32f10x_flash.c **** }
 723              		.loc 1 1613 1 is_stmt 0 view .LVU157
 724 0018 10BD     		pop	{r4, pc}
 725              	.LVL31:
 726              	.L75:
1609:src/Libraries/STM32F10x_StdPeriph_Driver/src/stm32f10x_flash.c ****   }
 727              		.loc 1 1609 12 view .LVU158
 728 001a 0520     		movs	r0, #5
 729              	.LVL32:
1609:src/Libraries/STM32F10x_StdPeriph_Driver/src/stm32f10x_flash.c ****   }
 730              		.loc 1 1609 12 view .LVU159
 731 001c FCE7     		b	.L72
 732              		.cfi_endproc
 733              	.LFE55:
 735              		.section	.text.FLASH_ErasePage,"ax",%progbits
 736              		.align	1
 737              		.global	FLASH_ErasePage
 738              		.syntax unified
 739              		.thumb
 740              		.thumb_func
 741              		.fpu softvfp
 743              	FLASH_ErasePage:
 744              	.LVL33:
 745              	.LFB36:
 420:src/Libraries/STM32F10x_StdPeriph_Driver/src/stm32f10x_flash.c ****   FLASH_Status status = FLASH_COMPLETE;
 746              		.loc 1 420 1 is_stmt 1 view -0
 747              		.cfi_startproc
ARM GAS  C:\Users\dell\AppData\Local\Temp\ccqOk9Jh.s 			page 42


 748              		@ args = 0, pretend = 0, frame = 0
 749              		@ frame_needed = 0, uses_anonymous_args = 0
 420:src/Libraries/STM32F10x_StdPeriph_Driver/src/stm32f10x_flash.c ****   FLASH_Status status = FLASH_COMPLETE;
 750              		.loc 1 420 1 is_stmt 0 view .LVU161
 751 0000 38B5     		push	{r3, r4, r5, lr}
 752              	.LCFI1:
 753              		.cfi_def_cfa_offset 16
 754              		.cfi_offset 3, -16
 755              		.cfi_offset 4, -12
 756              		.cfi_offset 5, -8
 757              		.cfi_offset 14, -4
 758 0002 0446     		mov	r4, r0
 421:src/Libraries/STM32F10x_StdPeriph_Driver/src/stm32f10x_flash.c ****   /* Check the parameters */
 759              		.loc 1 421 3 is_stmt 1 view .LVU162
 760              	.LVL34:
 423:src/Libraries/STM32F10x_StdPeriph_Driver/src/stm32f10x_flash.c **** 
 761              		.loc 1 423 3 view .LVU163
 464:src/Libraries/STM32F10x_StdPeriph_Driver/src/stm32f10x_flash.c ****   
 762              		.loc 1 464 3 view .LVU164
 464:src/Libraries/STM32F10x_StdPeriph_Driver/src/stm32f10x_flash.c ****   
 763              		.loc 1 464 12 is_stmt 0 view .LVU165
 764 0004 4FF43020 		mov	r0, #720896
 765              	.LVL35:
 464:src/Libraries/STM32F10x_StdPeriph_Driver/src/stm32f10x_flash.c ****   
 766              		.loc 1 464 12 view .LVU166
 767 0008 FFF7FEFF 		bl	FLASH_WaitForLastOperation
 768              	.LVL36:
 466:src/Libraries/STM32F10x_StdPeriph_Driver/src/stm32f10x_flash.c ****   { 
 769              		.loc 1 466 3 is_stmt 1 view .LVU167
 466:src/Libraries/STM32F10x_StdPeriph_Driver/src/stm32f10x_flash.c ****   { 
 770              		.loc 1 466 5 is_stmt 0 view .LVU168
 771 000c 0428     		cmp	r0, #4
 772 000e 00D0     		beq	.L79
 773              	.L77:
 482:src/Libraries/STM32F10x_StdPeriph_Driver/src/stm32f10x_flash.c **** }
 774              		.loc 1 482 3 is_stmt 1 view .LVU169
 483:src/Libraries/STM32F10x_StdPeriph_Driver/src/stm32f10x_flash.c **** 
 775              		.loc 1 483 1 is_stmt 0 view .LVU170
 776 0010 38BD     		pop	{r3, r4, r5, pc}
 777              	.LVL37:
 778              	.L79:
 469:src/Libraries/STM32F10x_StdPeriph_Driver/src/stm32f10x_flash.c ****     FLASH->AR = Page_Address; 
 779              		.loc 1 469 5 is_stmt 1 view .LVU171
 469:src/Libraries/STM32F10x_StdPeriph_Driver/src/stm32f10x_flash.c ****     FLASH->AR = Page_Address; 
 780              		.loc 1 469 14 is_stmt 0 view .LVU172
 781 0012 0A4D     		ldr	r5, .L80
 782 0014 2B69     		ldr	r3, [r5, #16]
 783 0016 43F00203 		orr	r3, r3, #2
 784 001a 2B61     		str	r3, [r5, #16]
 470:src/Libraries/STM32F10x_StdPeriph_Driver/src/stm32f10x_flash.c ****     FLASH->CR|= CR_STRT_Set;
 785              		.loc 1 470 5 is_stmt 1 view .LVU173
 470:src/Libraries/STM32F10x_StdPeriph_Driver/src/stm32f10x_flash.c ****     FLASH->CR|= CR_STRT_Set;
 786              		.loc 1 470 15 is_stmt 0 view .LVU174
 787 001c 6C61     		str	r4, [r5, #20]
 471:src/Libraries/STM32F10x_StdPeriph_Driver/src/stm32f10x_flash.c ****     
 788              		.loc 1 471 5 is_stmt 1 view .LVU175
 471:src/Libraries/STM32F10x_StdPeriph_Driver/src/stm32f10x_flash.c ****     
ARM GAS  C:\Users\dell\AppData\Local\Temp\ccqOk9Jh.s 			page 43


 789              		.loc 1 471 14 is_stmt 0 view .LVU176
 790 001e 2B69     		ldr	r3, [r5, #16]
 791 0020 43F04003 		orr	r3, r3, #64
 792 0024 2B61     		str	r3, [r5, #16]
 474:src/Libraries/STM32F10x_StdPeriph_Driver/src/stm32f10x_flash.c ****     
 793              		.loc 1 474 5 is_stmt 1 view .LVU177
 474:src/Libraries/STM32F10x_StdPeriph_Driver/src/stm32f10x_flash.c ****     
 794              		.loc 1 474 14 is_stmt 0 view .LVU178
 795 0026 4FF43020 		mov	r0, #720896
 796              	.LVL38:
 474:src/Libraries/STM32F10x_StdPeriph_Driver/src/stm32f10x_flash.c ****     
 797              		.loc 1 474 14 view .LVU179
 798 002a FFF7FEFF 		bl	FLASH_WaitForLastOperation
 799              	.LVL39:
 477:src/Libraries/STM32F10x_StdPeriph_Driver/src/stm32f10x_flash.c ****   }
 800              		.loc 1 477 5 is_stmt 1 view .LVU180
 477:src/Libraries/STM32F10x_StdPeriph_Driver/src/stm32f10x_flash.c ****   }
 801              		.loc 1 477 15 is_stmt 0 view .LVU181
 802 002e 2B69     		ldr	r3, [r5, #16]
 803 0030 23F00203 		bic	r3, r3, #2
 804 0034 DB04     		lsls	r3, r3, #19
 805 0036 DB0C     		lsrs	r3, r3, #19
 806 0038 2B61     		str	r3, [r5, #16]
 807 003a E9E7     		b	.L77
 808              	.L81:
 809              		.align	2
 810              	.L80:
 811 003c 00200240 		.word	1073881088
 812              		.cfi_endproc
 813              	.LFE36:
 815              		.section	.text.FLASH_EraseAllPages,"ax",%progbits
 816              		.align	1
 817              		.global	FLASH_EraseAllPages
 818              		.syntax unified
 819              		.thumb
 820              		.thumb_func
 821              		.fpu softvfp
 823              	FLASH_EraseAllPages:
 824              	.LFB37:
 493:src/Libraries/STM32F10x_StdPeriph_Driver/src/stm32f10x_flash.c ****   FLASH_Status status = FLASH_COMPLETE;
 825              		.loc 1 493 1 is_stmt 1 view -0
 826              		.cfi_startproc
 827              		@ args = 0, pretend = 0, frame = 0
 828              		@ frame_needed = 0, uses_anonymous_args = 0
 829 0000 10B5     		push	{r4, lr}
 830              	.LCFI2:
 831              		.cfi_def_cfa_offset 8
 832              		.cfi_offset 4, -8
 833              		.cfi_offset 14, -4
 494:src/Libraries/STM32F10x_StdPeriph_Driver/src/stm32f10x_flash.c **** 
 834              		.loc 1 494 3 view .LVU183
 835              	.LVL40:
 526:src/Libraries/STM32F10x_StdPeriph_Driver/src/stm32f10x_flash.c ****   if(status == FLASH_COMPLETE)
 836              		.loc 1 526 3 view .LVU184
 526:src/Libraries/STM32F10x_StdPeriph_Driver/src/stm32f10x_flash.c ****   if(status == FLASH_COMPLETE)
 837              		.loc 1 526 12 is_stmt 0 view .LVU185
 838 0002 4FF43020 		mov	r0, #720896
ARM GAS  C:\Users\dell\AppData\Local\Temp\ccqOk9Jh.s 			page 44


 839 0006 FFF7FEFF 		bl	FLASH_WaitForLastOperation
 840              	.LVL41:
 527:src/Libraries/STM32F10x_StdPeriph_Driver/src/stm32f10x_flash.c ****   {
 841              		.loc 1 527 3 is_stmt 1 view .LVU186
 527:src/Libraries/STM32F10x_StdPeriph_Driver/src/stm32f10x_flash.c ****   {
 842              		.loc 1 527 5 is_stmt 0 view .LVU187
 843 000a 0428     		cmp	r0, #4
 844 000c 00D0     		beq	.L85
 845              	.L83:
 542:src/Libraries/STM32F10x_StdPeriph_Driver/src/stm32f10x_flash.c **** }
 846              		.loc 1 542 3 is_stmt 1 view .LVU188
 543:src/Libraries/STM32F10x_StdPeriph_Driver/src/stm32f10x_flash.c **** 
 847              		.loc 1 543 1 is_stmt 0 view .LVU189
 848 000e 10BD     		pop	{r4, pc}
 849              	.L85:
 530:src/Libraries/STM32F10x_StdPeriph_Driver/src/stm32f10x_flash.c ****      FLASH->CR |= CR_STRT_Set;
 850              		.loc 1 530 6 is_stmt 1 view .LVU190
 530:src/Libraries/STM32F10x_StdPeriph_Driver/src/stm32f10x_flash.c ****      FLASH->CR |= CR_STRT_Set;
 851              		.loc 1 530 16 is_stmt 0 view .LVU191
 852 0010 094C     		ldr	r4, .L86
 853 0012 2369     		ldr	r3, [r4, #16]
 854 0014 43F00403 		orr	r3, r3, #4
 855 0018 2361     		str	r3, [r4, #16]
 531:src/Libraries/STM32F10x_StdPeriph_Driver/src/stm32f10x_flash.c ****     
 856              		.loc 1 531 6 is_stmt 1 view .LVU192
 531:src/Libraries/STM32F10x_StdPeriph_Driver/src/stm32f10x_flash.c ****     
 857              		.loc 1 531 16 is_stmt 0 view .LVU193
 858 001a 2369     		ldr	r3, [r4, #16]
 859 001c 43F04003 		orr	r3, r3, #64
 860 0020 2361     		str	r3, [r4, #16]
 534:src/Libraries/STM32F10x_StdPeriph_Driver/src/stm32f10x_flash.c **** 
 861              		.loc 1 534 5 is_stmt 1 view .LVU194
 534:src/Libraries/STM32F10x_StdPeriph_Driver/src/stm32f10x_flash.c **** 
 862              		.loc 1 534 14 is_stmt 0 view .LVU195
 863 0022 4FF43020 		mov	r0, #720896
 864              	.LVL42:
 534:src/Libraries/STM32F10x_StdPeriph_Driver/src/stm32f10x_flash.c **** 
 865              		.loc 1 534 14 view .LVU196
 866 0026 FFF7FEFF 		bl	FLASH_WaitForLastOperation
 867              	.LVL43:
 537:src/Libraries/STM32F10x_StdPeriph_Driver/src/stm32f10x_flash.c ****   }
 868              		.loc 1 537 5 is_stmt 1 view .LVU197
 537:src/Libraries/STM32F10x_StdPeriph_Driver/src/stm32f10x_flash.c ****   }
 869              		.loc 1 537 15 is_stmt 0 view .LVU198
 870 002a 2369     		ldr	r3, [r4, #16]
 871 002c 23F00403 		bic	r3, r3, #4
 872 0030 DB04     		lsls	r3, r3, #19
 873 0032 DB0C     		lsrs	r3, r3, #19
 874 0034 2361     		str	r3, [r4, #16]
 875 0036 EAE7     		b	.L83
 876              	.L87:
 877              		.align	2
 878              	.L86:
 879 0038 00200240 		.word	1073881088
 880              		.cfi_endproc
 881              	.LFE37:
 883              		.section	.text.FLASH_EraseOptionBytes,"ax",%progbits
ARM GAS  C:\Users\dell\AppData\Local\Temp\ccqOk9Jh.s 			page 45


 884              		.align	1
 885              		.global	FLASH_EraseOptionBytes
 886              		.syntax unified
 887              		.thumb
 888              		.thumb_func
 889              		.fpu softvfp
 891              	FLASH_EraseOptionBytes:
 892              	.LFB39:
 617:src/Libraries/STM32F10x_StdPeriph_Driver/src/stm32f10x_flash.c ****   uint16_t rdptmp = RDP_Key;
 893              		.loc 1 617 1 is_stmt 1 view -0
 894              		.cfi_startproc
 895              		@ args = 0, pretend = 0, frame = 0
 896              		@ frame_needed = 0, uses_anonymous_args = 0
 897 0000 10B5     		push	{r4, lr}
 898              	.LCFI3:
 899              		.cfi_def_cfa_offset 8
 900              		.cfi_offset 4, -8
 901              		.cfi_offset 14, -4
 618:src/Libraries/STM32F10x_StdPeriph_Driver/src/stm32f10x_flash.c **** 
 902              		.loc 1 618 3 view .LVU200
 903              	.LVL44:
 620:src/Libraries/STM32F10x_StdPeriph_Driver/src/stm32f10x_flash.c **** 
 904              		.loc 1 620 3 view .LVU201
 623:src/Libraries/STM32F10x_StdPeriph_Driver/src/stm32f10x_flash.c ****   {
 905              		.loc 1 623 3 view .LVU202
 623:src/Libraries/STM32F10x_StdPeriph_Driver/src/stm32f10x_flash.c ****   {
 906              		.loc 1 623 6 is_stmt 0 view .LVU203
 907 0002 FFF7FEFF 		bl	FLASH_GetReadOutProtectionStatus
 908              	.LVL45:
 623:src/Libraries/STM32F10x_StdPeriph_Driver/src/stm32f10x_flash.c ****   {
 909              		.loc 1 623 5 view .LVU204
 910 0006 38B9     		cbnz	r0, .L92
 618:src/Libraries/STM32F10x_StdPeriph_Driver/src/stm32f10x_flash.c **** 
 911              		.loc 1 618 12 view .LVU205
 912 0008 A524     		movs	r4, #165
 913              	.L89:
 914              	.LVL46:
 629:src/Libraries/STM32F10x_StdPeriph_Driver/src/stm32f10x_flash.c ****   if(status == FLASH_COMPLETE)
 915              		.loc 1 629 3 is_stmt 1 view .LVU206
 629:src/Libraries/STM32F10x_StdPeriph_Driver/src/stm32f10x_flash.c ****   if(status == FLASH_COMPLETE)
 916              		.loc 1 629 12 is_stmt 0 view .LVU207
 917 000a 4FF43020 		mov	r0, #720896
 918 000e FFF7FEFF 		bl	FLASH_WaitForLastOperation
 919              	.LVL47:
 630:src/Libraries/STM32F10x_StdPeriph_Driver/src/stm32f10x_flash.c ****   {
 920              		.loc 1 630 3 is_stmt 1 view .LVU208
 630:src/Libraries/STM32F10x_StdPeriph_Driver/src/stm32f10x_flash.c ****   {
 921              		.loc 1 630 5 is_stmt 0 view .LVU209
 922 0012 0428     		cmp	r0, #4
 923 0014 02D0     		beq	.L94
 924              	.L90:
 670:src/Libraries/STM32F10x_StdPeriph_Driver/src/stm32f10x_flash.c **** }
 925              		.loc 1 670 3 is_stmt 1 view .LVU210
 671:src/Libraries/STM32F10x_StdPeriph_Driver/src/stm32f10x_flash.c **** 
 926              		.loc 1 671 1 is_stmt 0 view .LVU211
 927 0016 10BD     		pop	{r4, pc}
 928              	.LVL48:
ARM GAS  C:\Users\dell\AppData\Local\Temp\ccqOk9Jh.s 			page 46


 929              	.L92:
 625:src/Libraries/STM32F10x_StdPeriph_Driver/src/stm32f10x_flash.c ****   }
 930              		.loc 1 625 12 view .LVU212
 931 0018 0024     		movs	r4, #0
 932 001a F6E7     		b	.L89
 933              	.LVL49:
 934              	.L94:
 633:src/Libraries/STM32F10x_StdPeriph_Driver/src/stm32f10x_flash.c ****     FLASH->OPTKEYR = FLASH_KEY2;
 935              		.loc 1 633 5 is_stmt 1 view .LVU213
 633:src/Libraries/STM32F10x_StdPeriph_Driver/src/stm32f10x_flash.c ****     FLASH->OPTKEYR = FLASH_KEY2;
 936              		.loc 1 633 20 is_stmt 0 view .LVU214
 937 001c 1C4B     		ldr	r3, .L96
 938 001e 1D4A     		ldr	r2, .L96+4
 939 0020 9A60     		str	r2, [r3, #8]
 634:src/Libraries/STM32F10x_StdPeriph_Driver/src/stm32f10x_flash.c ****     
 940              		.loc 1 634 5 is_stmt 1 view .LVU215
 634:src/Libraries/STM32F10x_StdPeriph_Driver/src/stm32f10x_flash.c ****     
 941              		.loc 1 634 20 is_stmt 0 view .LVU216
 942 0022 02F18832 		add	r2, r2, #-2004318072
 943 0026 9A60     		str	r2, [r3, #8]
 637:src/Libraries/STM32F10x_StdPeriph_Driver/src/stm32f10x_flash.c ****     FLASH->CR |= CR_STRT_Set;
 944              		.loc 1 637 5 is_stmt 1 view .LVU217
 637:src/Libraries/STM32F10x_StdPeriph_Driver/src/stm32f10x_flash.c ****     FLASH->CR |= CR_STRT_Set;
 945              		.loc 1 637 15 is_stmt 0 view .LVU218
 946 0028 1A69     		ldr	r2, [r3, #16]
 947 002a 42F02002 		orr	r2, r2, #32
 948 002e 1A61     		str	r2, [r3, #16]
 638:src/Libraries/STM32F10x_StdPeriph_Driver/src/stm32f10x_flash.c ****     /* Wait for last operation to be completed */
 949              		.loc 1 638 5 is_stmt 1 view .LVU219
 638:src/Libraries/STM32F10x_StdPeriph_Driver/src/stm32f10x_flash.c ****     /* Wait for last operation to be completed */
 950              		.loc 1 638 15 is_stmt 0 view .LVU220
 951 0030 1A69     		ldr	r2, [r3, #16]
 952 0032 42F04002 		orr	r2, r2, #64
 953 0036 1A61     		str	r2, [r3, #16]
 640:src/Libraries/STM32F10x_StdPeriph_Driver/src/stm32f10x_flash.c ****     
 954              		.loc 1 640 5 is_stmt 1 view .LVU221
 640:src/Libraries/STM32F10x_StdPeriph_Driver/src/stm32f10x_flash.c ****     
 955              		.loc 1 640 14 is_stmt 0 view .LVU222
 956 0038 4FF43020 		mov	r0, #720896
 957              	.LVL50:
 640:src/Libraries/STM32F10x_StdPeriph_Driver/src/stm32f10x_flash.c ****     
 958              		.loc 1 640 14 view .LVU223
 959 003c FFF7FEFF 		bl	FLASH_WaitForLastOperation
 960              	.LVL51:
 642:src/Libraries/STM32F10x_StdPeriph_Driver/src/stm32f10x_flash.c ****     {
 961              		.loc 1 642 5 is_stmt 1 view .LVU224
 642:src/Libraries/STM32F10x_StdPeriph_Driver/src/stm32f10x_flash.c ****     {
 962              		.loc 1 642 7 is_stmt 0 view .LVU225
 963 0040 0428     		cmp	r0, #4
 964 0042 09D0     		beq	.L95
 662:src/Libraries/STM32F10x_StdPeriph_Driver/src/stm32f10x_flash.c ****       {
 965              		.loc 1 662 7 is_stmt 1 view .LVU226
 662:src/Libraries/STM32F10x_StdPeriph_Driver/src/stm32f10x_flash.c ****       {
 966              		.loc 1 662 10 is_stmt 0 view .LVU227
 967 0044 0528     		cmp	r0, #5
 968 0046 E6D0     		beq	.L90
 665:src/Libraries/STM32F10x_StdPeriph_Driver/src/stm32f10x_flash.c ****       }
ARM GAS  C:\Users\dell\AppData\Local\Temp\ccqOk9Jh.s 			page 47


 969              		.loc 1 665 9 is_stmt 1 view .LVU228
 665:src/Libraries/STM32F10x_StdPeriph_Driver/src/stm32f10x_flash.c ****       }
 970              		.loc 1 665 19 is_stmt 0 view .LVU229
 971 0048 114A     		ldr	r2, .L96
 972 004a 1369     		ldr	r3, [r2, #16]
 973 004c 23F01003 		bic	r3, r3, #16
 974 0050 DB04     		lsls	r3, r3, #19
 975 0052 DB0C     		lsrs	r3, r3, #19
 976 0054 1361     		str	r3, [r2, #16]
 977 0056 DEE7     		b	.L90
 978              	.L95:
 645:src/Libraries/STM32F10x_StdPeriph_Driver/src/stm32f10x_flash.c ****        
 979              		.loc 1 645 7 is_stmt 1 view .LVU230
 645:src/Libraries/STM32F10x_StdPeriph_Driver/src/stm32f10x_flash.c ****        
 980              		.loc 1 645 17 is_stmt 0 view .LVU231
 981 0058 0D4B     		ldr	r3, .L96
 982 005a 1A69     		ldr	r2, [r3, #16]
 983 005c 22F02002 		bic	r2, r2, #32
 984 0060 D204     		lsls	r2, r2, #19
 985 0062 D20C     		lsrs	r2, r2, #19
 986 0064 1A61     		str	r2, [r3, #16]
 648:src/Libraries/STM32F10x_StdPeriph_Driver/src/stm32f10x_flash.c ****       /* Restore the last read protection Option Byte value */
 987              		.loc 1 648 7 is_stmt 1 view .LVU232
 648:src/Libraries/STM32F10x_StdPeriph_Driver/src/stm32f10x_flash.c ****       /* Restore the last read protection Option Byte value */
 988              		.loc 1 648 17 is_stmt 0 view .LVU233
 989 0066 1A69     		ldr	r2, [r3, #16]
 990 0068 42F01002 		orr	r2, r2, #16
 991 006c 1A61     		str	r2, [r3, #16]
 650:src/Libraries/STM32F10x_StdPeriph_Driver/src/stm32f10x_flash.c ****       /* Wait for last operation to be completed */
 992              		.loc 1 650 7 is_stmt 1 view .LVU234
 650:src/Libraries/STM32F10x_StdPeriph_Driver/src/stm32f10x_flash.c ****       /* Wait for last operation to be completed */
 993              		.loc 1 650 15 is_stmt 0 view .LVU235
 994 006e 0A4B     		ldr	r3, .L96+8
 995 0070 1C80     		strh	r4, [r3]	@ movhi
 652:src/Libraries/STM32F10x_StdPeriph_Driver/src/stm32f10x_flash.c ****  
 996              		.loc 1 652 7 is_stmt 1 view .LVU236
 652:src/Libraries/STM32F10x_StdPeriph_Driver/src/stm32f10x_flash.c ****  
 997              		.loc 1 652 16 is_stmt 0 view .LVU237
 998 0072 4FF40050 		mov	r0, #8192
 999              	.LVL52:
 652:src/Libraries/STM32F10x_StdPeriph_Driver/src/stm32f10x_flash.c ****  
 1000              		.loc 1 652 16 view .LVU238
 1001 0076 FFF7FEFF 		bl	FLASH_WaitForLastOperation
 1002              	.LVL53:
 654:src/Libraries/STM32F10x_StdPeriph_Driver/src/stm32f10x_flash.c ****       {
 1003              		.loc 1 654 7 is_stmt 1 view .LVU239
 654:src/Libraries/STM32F10x_StdPeriph_Driver/src/stm32f10x_flash.c ****       {
 1004              		.loc 1 654 9 is_stmt 0 view .LVU240
 1005 007a 0528     		cmp	r0, #5
 1006 007c CBD0     		beq	.L90
 657:src/Libraries/STM32F10x_StdPeriph_Driver/src/stm32f10x_flash.c ****       }
 1007              		.loc 1 657 9 is_stmt 1 view .LVU241
 657:src/Libraries/STM32F10x_StdPeriph_Driver/src/stm32f10x_flash.c ****       }
 1008              		.loc 1 657 19 is_stmt 0 view .LVU242
 1009 007e 044A     		ldr	r2, .L96
 1010 0080 1369     		ldr	r3, [r2, #16]
 1011 0082 23F01003 		bic	r3, r3, #16
ARM GAS  C:\Users\dell\AppData\Local\Temp\ccqOk9Jh.s 			page 48


 1012 0086 DB04     		lsls	r3, r3, #19
 1013 0088 DB0C     		lsrs	r3, r3, #19
 1014 008a 1361     		str	r3, [r2, #16]
 1015 008c C3E7     		b	.L90
 1016              	.L97:
 1017 008e 00BF     		.align	2
 1018              	.L96:
 1019 0090 00200240 		.word	1073881088
 1020 0094 23016745 		.word	1164378403
 1021 0098 00F8FF1F 		.word	536868864
 1022              		.cfi_endproc
 1023              	.LFE39:
 1025              		.section	.text.FLASH_ProgramWord,"ax",%progbits
 1026              		.align	1
 1027              		.global	FLASH_ProgramWord
 1028              		.syntax unified
 1029              		.thumb
 1030              		.thumb_func
 1031              		.fpu softvfp
 1033              	FLASH_ProgramWord:
 1034              	.LVL54:
 1035              	.LFB40:
 682:src/Libraries/STM32F10x_StdPeriph_Driver/src/stm32f10x_flash.c ****   FLASH_Status status = FLASH_COMPLETE;
 1036              		.loc 1 682 1 is_stmt 1 view -0
 1037              		.cfi_startproc
 1038              		@ args = 0, pretend = 0, frame = 8
 1039              		@ frame_needed = 0, uses_anonymous_args = 0
 682:src/Libraries/STM32F10x_StdPeriph_Driver/src/stm32f10x_flash.c ****   FLASH_Status status = FLASH_COMPLETE;
 1040              		.loc 1 682 1 is_stmt 0 view .LVU244
 1041 0000 30B5     		push	{r4, r5, lr}
 1042              	.LCFI4:
 1043              		.cfi_def_cfa_offset 12
 1044              		.cfi_offset 4, -12
 1045              		.cfi_offset 5, -8
 1046              		.cfi_offset 14, -4
 1047 0002 83B0     		sub	sp, sp, #12
 1048              	.LCFI5:
 1049              		.cfi_def_cfa_offset 24
 1050 0004 0546     		mov	r5, r0
 1051 0006 0C46     		mov	r4, r1
 683:src/Libraries/STM32F10x_StdPeriph_Driver/src/stm32f10x_flash.c ****   __IO uint32_t tmp = 0;
 1052              		.loc 1 683 3 is_stmt 1 view .LVU245
 1053              	.LVL55:
 684:src/Libraries/STM32F10x_StdPeriph_Driver/src/stm32f10x_flash.c **** 
 1054              		.loc 1 684 3 view .LVU246
 684:src/Libraries/STM32F10x_StdPeriph_Driver/src/stm32f10x_flash.c **** 
 1055              		.loc 1 684 17 is_stmt 0 view .LVU247
 1056 0008 0023     		movs	r3, #0
 1057 000a 0193     		str	r3, [sp, #4]
 687:src/Libraries/STM32F10x_StdPeriph_Driver/src/stm32f10x_flash.c **** 
 1058              		.loc 1 687 3 is_stmt 1 view .LVU248
 812:src/Libraries/STM32F10x_StdPeriph_Driver/src/stm32f10x_flash.c ****   
 1059              		.loc 1 812 3 view .LVU249
 812:src/Libraries/STM32F10x_StdPeriph_Driver/src/stm32f10x_flash.c ****   
 1060              		.loc 1 812 12 is_stmt 0 view .LVU250
 1061 000c 4FF40050 		mov	r0, #8192
 1062              	.LVL56:
ARM GAS  C:\Users\dell\AppData\Local\Temp\ccqOk9Jh.s 			page 49


 812:src/Libraries/STM32F10x_StdPeriph_Driver/src/stm32f10x_flash.c ****   
 1063              		.loc 1 812 12 view .LVU251
 1064 0010 FFF7FEFF 		bl	FLASH_WaitForLastOperation
 1065              	.LVL57:
 814:src/Libraries/STM32F10x_StdPeriph_Driver/src/stm32f10x_flash.c ****   {
 1066              		.loc 1 814 3 is_stmt 1 view .LVU252
 814:src/Libraries/STM32F10x_StdPeriph_Driver/src/stm32f10x_flash.c ****   {
 1067              		.loc 1 814 5 is_stmt 0 view .LVU253
 1068 0014 0428     		cmp	r0, #4
 1069 0016 01D0     		beq	.L102
 1070              	.LVL58:
 1071              	.L99:
 847:src/Libraries/STM32F10x_StdPeriph_Driver/src/stm32f10x_flash.c **** }
 1072              		.loc 1 847 3 is_stmt 1 view .LVU254
 848:src/Libraries/STM32F10x_StdPeriph_Driver/src/stm32f10x_flash.c **** 
 1073              		.loc 1 848 1 is_stmt 0 view .LVU255
 1074 0018 03B0     		add	sp, sp, #12
 1075              	.LCFI6:
 1076              		.cfi_remember_state
 1077              		.cfi_def_cfa_offset 12
 1078              		@ sp needed
 1079 001a 30BD     		pop	{r4, r5, pc}
 1080              	.LVL59:
 1081              	.L102:
 1082              	.LCFI7:
 1083              		.cfi_restore_state
 818:src/Libraries/STM32F10x_StdPeriph_Driver/src/stm32f10x_flash.c ****   
 1084              		.loc 1 818 5 is_stmt 1 view .LVU256
 818:src/Libraries/STM32F10x_StdPeriph_Driver/src/stm32f10x_flash.c ****   
 1085              		.loc 1 818 15 is_stmt 0 view .LVU257
 1086 001c 124A     		ldr	r2, .L104
 1087 001e 1369     		ldr	r3, [r2, #16]
 1088 0020 43F00103 		orr	r3, r3, #1
 1089 0024 1361     		str	r3, [r2, #16]
 820:src/Libraries/STM32F10x_StdPeriph_Driver/src/stm32f10x_flash.c ****     /* Wait for last operation to be completed */
 1090              		.loc 1 820 5 is_stmt 1 view .LVU258
 820:src/Libraries/STM32F10x_StdPeriph_Driver/src/stm32f10x_flash.c ****     /* Wait for last operation to be completed */
 1091              		.loc 1 820 32 is_stmt 0 view .LVU259
 1092 0026 A3B2     		uxth	r3, r4
 820:src/Libraries/STM32F10x_StdPeriph_Driver/src/stm32f10x_flash.c ****     /* Wait for last operation to be completed */
 1093              		.loc 1 820 30 view .LVU260
 1094 0028 2B80     		strh	r3, [r5]	@ movhi
 822:src/Libraries/STM32F10x_StdPeriph_Driver/src/stm32f10x_flash.c ****  
 1095              		.loc 1 822 5 is_stmt 1 view .LVU261
 822:src/Libraries/STM32F10x_StdPeriph_Driver/src/stm32f10x_flash.c ****  
 1096              		.loc 1 822 14 is_stmt 0 view .LVU262
 1097 002a 4FF40050 		mov	r0, #8192
 1098              	.LVL60:
 822:src/Libraries/STM32F10x_StdPeriph_Driver/src/stm32f10x_flash.c ****  
 1099              		.loc 1 822 14 view .LVU263
 1100 002e FFF7FEFF 		bl	FLASH_WaitForLastOperation
 1101              	.LVL61:
 824:src/Libraries/STM32F10x_StdPeriph_Driver/src/stm32f10x_flash.c ****     {
 1102              		.loc 1 824 5 is_stmt 1 view .LVU264
 824:src/Libraries/STM32F10x_StdPeriph_Driver/src/stm32f10x_flash.c ****     {
 1103              		.loc 1 824 7 is_stmt 0 view .LVU265
 1104 0032 0428     		cmp	r0, #4
ARM GAS  C:\Users\dell\AppData\Local\Temp\ccqOk9Jh.s 			page 50


 1105 0034 07D0     		beq	.L103
 841:src/Libraries/STM32F10x_StdPeriph_Driver/src/stm32f10x_flash.c ****     }
 1106              		.loc 1 841 7 is_stmt 1 view .LVU266
 841:src/Libraries/STM32F10x_StdPeriph_Driver/src/stm32f10x_flash.c ****     }
 1107              		.loc 1 841 17 is_stmt 0 view .LVU267
 1108 0036 0C4A     		ldr	r2, .L104
 1109 0038 1369     		ldr	r3, [r2, #16]
 1110 003a 23F00103 		bic	r3, r3, #1
 1111 003e DB04     		lsls	r3, r3, #19
 1112 0040 DB0C     		lsrs	r3, r3, #19
 1113 0042 1361     		str	r3, [r2, #16]
 1114 0044 E8E7     		b	.L99
 1115              	.L103:
 828:src/Libraries/STM32F10x_StdPeriph_Driver/src/stm32f10x_flash.c **** 
 1116              		.loc 1 828 7 is_stmt 1 view .LVU268
 828:src/Libraries/STM32F10x_StdPeriph_Driver/src/stm32f10x_flash.c **** 
 1117              		.loc 1 828 21 is_stmt 0 view .LVU269
 1118 0046 0235     		adds	r5, r5, #2
 1119              	.LVL62:
 828:src/Libraries/STM32F10x_StdPeriph_Driver/src/stm32f10x_flash.c **** 
 1120              		.loc 1 828 11 view .LVU270
 1121 0048 0195     		str	r5, [sp, #4]
 830:src/Libraries/STM32F10x_StdPeriph_Driver/src/stm32f10x_flash.c ****     
 1122              		.loc 1 830 7 is_stmt 1 view .LVU271
 830:src/Libraries/STM32F10x_StdPeriph_Driver/src/stm32f10x_flash.c ****     
 1123              		.loc 1 830 8 is_stmt 0 view .LVU272
 1124 004a 019B     		ldr	r3, [sp, #4]
 830:src/Libraries/STM32F10x_StdPeriph_Driver/src/stm32f10x_flash.c ****     
 1125              		.loc 1 830 29 view .LVU273
 1126 004c 210C     		lsrs	r1, r4, #16
 1127 004e 1980     		strh	r1, [r3]	@ movhi
 833:src/Libraries/STM32F10x_StdPeriph_Driver/src/stm32f10x_flash.c ****         
 1128              		.loc 1 833 7 is_stmt 1 view .LVU274
 833:src/Libraries/STM32F10x_StdPeriph_Driver/src/stm32f10x_flash.c ****         
 1129              		.loc 1 833 16 is_stmt 0 view .LVU275
 1130 0050 4FF40050 		mov	r0, #8192
 1131              	.LVL63:
 833:src/Libraries/STM32F10x_StdPeriph_Driver/src/stm32f10x_flash.c ****         
 1132              		.loc 1 833 16 view .LVU276
 1133 0054 FFF7FEFF 		bl	FLASH_WaitForLastOperation
 1134              	.LVL64:
 836:src/Libraries/STM32F10x_StdPeriph_Driver/src/stm32f10x_flash.c ****     }
 1135              		.loc 1 836 7 is_stmt 1 view .LVU277
 836:src/Libraries/STM32F10x_StdPeriph_Driver/src/stm32f10x_flash.c ****     }
 1136              		.loc 1 836 17 is_stmt 0 view .LVU278
 1137 0058 034A     		ldr	r2, .L104
 1138 005a 1369     		ldr	r3, [r2, #16]
 1139 005c 23F00103 		bic	r3, r3, #1
 1140 0060 DB04     		lsls	r3, r3, #19
 1141 0062 DB0C     		lsrs	r3, r3, #19
 1142 0064 1361     		str	r3, [r2, #16]
 1143 0066 D7E7     		b	.L99
 1144              	.L105:
 1145              		.align	2
 1146              	.L104:
 1147 0068 00200240 		.word	1073881088
 1148              		.cfi_endproc
ARM GAS  C:\Users\dell\AppData\Local\Temp\ccqOk9Jh.s 			page 51


 1149              	.LFE40:
 1151              		.section	.text.FLASH_ProgramHalfWord,"ax",%progbits
 1152              		.align	1
 1153              		.global	FLASH_ProgramHalfWord
 1154              		.syntax unified
 1155              		.thumb
 1156              		.thumb_func
 1157              		.fpu softvfp
 1159              	FLASH_ProgramHalfWord:
 1160              	.LVL65:
 1161              	.LFB41:
 859:src/Libraries/STM32F10x_StdPeriph_Driver/src/stm32f10x_flash.c ****   FLASH_Status status = FLASH_COMPLETE;
 1162              		.loc 1 859 1 is_stmt 1 view -0
 1163              		.cfi_startproc
 1164              		@ args = 0, pretend = 0, frame = 0
 1165              		@ frame_needed = 0, uses_anonymous_args = 0
 859:src/Libraries/STM32F10x_StdPeriph_Driver/src/stm32f10x_flash.c ****   FLASH_Status status = FLASH_COMPLETE;
 1166              		.loc 1 859 1 is_stmt 0 view .LVU280
 1167 0000 70B5     		push	{r4, r5, r6, lr}
 1168              	.LCFI8:
 1169              		.cfi_def_cfa_offset 16
 1170              		.cfi_offset 4, -16
 1171              		.cfi_offset 5, -12
 1172              		.cfi_offset 6, -8
 1173              		.cfi_offset 14, -4
 1174 0002 0446     		mov	r4, r0
 1175 0004 0D46     		mov	r5, r1
 860:src/Libraries/STM32F10x_StdPeriph_Driver/src/stm32f10x_flash.c ****   /* Check the parameters */
 1176              		.loc 1 860 3 is_stmt 1 view .LVU281
 1177              	.LVL66:
 862:src/Libraries/STM32F10x_StdPeriph_Driver/src/stm32f10x_flash.c **** 
 1178              		.loc 1 862 3 view .LVU282
 900:src/Libraries/STM32F10x_StdPeriph_Driver/src/stm32f10x_flash.c ****   
 1179              		.loc 1 900 3 view .LVU283
 900:src/Libraries/STM32F10x_StdPeriph_Driver/src/stm32f10x_flash.c ****   
 1180              		.loc 1 900 12 is_stmt 0 view .LVU284
 1181 0006 4FF40050 		mov	r0, #8192
 1182              	.LVL67:
 900:src/Libraries/STM32F10x_StdPeriph_Driver/src/stm32f10x_flash.c ****   
 1183              		.loc 1 900 12 view .LVU285
 1184 000a FFF7FEFF 		bl	FLASH_WaitForLastOperation
 1185              	.LVL68:
 902:src/Libraries/STM32F10x_StdPeriph_Driver/src/stm32f10x_flash.c ****   {
 1186              		.loc 1 902 3 is_stmt 1 view .LVU286
 902:src/Libraries/STM32F10x_StdPeriph_Driver/src/stm32f10x_flash.c ****   {
 1187              		.loc 1 902 5 is_stmt 0 view .LVU287
 1188 000e 0428     		cmp	r0, #4
 1189 0010 00D0     		beq	.L109
 1190              	.L107:
 917:src/Libraries/STM32F10x_StdPeriph_Driver/src/stm32f10x_flash.c **** }
 1191              		.loc 1 917 3 is_stmt 1 view .LVU288
 918:src/Libraries/STM32F10x_StdPeriph_Driver/src/stm32f10x_flash.c **** 
 1192              		.loc 1 918 1 is_stmt 0 view .LVU289
 1193 0012 70BD     		pop	{r4, r5, r6, pc}
 1194              	.LVL69:
 1195              	.L109:
 905:src/Libraries/STM32F10x_StdPeriph_Driver/src/stm32f10x_flash.c ****   
ARM GAS  C:\Users\dell\AppData\Local\Temp\ccqOk9Jh.s 			page 52


 1196              		.loc 1 905 5 is_stmt 1 view .LVU290
 905:src/Libraries/STM32F10x_StdPeriph_Driver/src/stm32f10x_flash.c ****   
 1197              		.loc 1 905 15 is_stmt 0 view .LVU291
 1198 0014 084E     		ldr	r6, .L110
 1199 0016 3369     		ldr	r3, [r6, #16]
 1200 0018 43F00103 		orr	r3, r3, #1
 1201 001c 3361     		str	r3, [r6, #16]
 907:src/Libraries/STM32F10x_StdPeriph_Driver/src/stm32f10x_flash.c ****     /* Wait for last operation to be completed */
 1202              		.loc 1 907 5 is_stmt 1 view .LVU292
 907:src/Libraries/STM32F10x_StdPeriph_Driver/src/stm32f10x_flash.c ****     /* Wait for last operation to be completed */
 1203              		.loc 1 907 30 is_stmt 0 view .LVU293
 1204 001e 2580     		strh	r5, [r4]	@ movhi
 909:src/Libraries/STM32F10x_StdPeriph_Driver/src/stm32f10x_flash.c ****     
 1205              		.loc 1 909 5 is_stmt 1 view .LVU294
 909:src/Libraries/STM32F10x_StdPeriph_Driver/src/stm32f10x_flash.c ****     
 1206              		.loc 1 909 14 is_stmt 0 view .LVU295
 1207 0020 4FF40050 		mov	r0, #8192
 1208              	.LVL70:
 909:src/Libraries/STM32F10x_StdPeriph_Driver/src/stm32f10x_flash.c ****     
 1209              		.loc 1 909 14 view .LVU296
 1210 0024 FFF7FEFF 		bl	FLASH_WaitForLastOperation
 1211              	.LVL71:
 912:src/Libraries/STM32F10x_StdPeriph_Driver/src/stm32f10x_flash.c ****   } 
 1212              		.loc 1 912 5 is_stmt 1 view .LVU297
 912:src/Libraries/STM32F10x_StdPeriph_Driver/src/stm32f10x_flash.c ****   } 
 1213              		.loc 1 912 15 is_stmt 0 view .LVU298
 1214 0028 3369     		ldr	r3, [r6, #16]
 1215 002a 23F00103 		bic	r3, r3, #1
 1216 002e DB04     		lsls	r3, r3, #19
 1217 0030 DB0C     		lsrs	r3, r3, #19
 1218 0032 3361     		str	r3, [r6, #16]
 1219 0034 EDE7     		b	.L107
 1220              	.L111:
 1221 0036 00BF     		.align	2
 1222              	.L110:
 1223 0038 00200240 		.word	1073881088
 1224              		.cfi_endproc
 1225              	.LFE41:
 1227              		.section	.text.FLASH_ProgramOptionByteData,"ax",%progbits
 1228              		.align	1
 1229              		.global	FLASH_ProgramOptionByteData
 1230              		.syntax unified
 1231              		.thumb
 1232              		.thumb_func
 1233              		.fpu softvfp
 1235              	FLASH_ProgramOptionByteData:
 1236              	.LVL72:
 1237              	.LFB42:
 930:src/Libraries/STM32F10x_StdPeriph_Driver/src/stm32f10x_flash.c ****   FLASH_Status status = FLASH_COMPLETE;
 1238              		.loc 1 930 1 is_stmt 1 view -0
 1239              		.cfi_startproc
 1240              		@ args = 0, pretend = 0, frame = 0
 1241              		@ frame_needed = 0, uses_anonymous_args = 0
 930:src/Libraries/STM32F10x_StdPeriph_Driver/src/stm32f10x_flash.c ****   FLASH_Status status = FLASH_COMPLETE;
 1242              		.loc 1 930 1 is_stmt 0 view .LVU300
 1243 0000 38B5     		push	{r3, r4, r5, lr}
 1244              	.LCFI9:
ARM GAS  C:\Users\dell\AppData\Local\Temp\ccqOk9Jh.s 			page 53


 1245              		.cfi_def_cfa_offset 16
 1246              		.cfi_offset 3, -16
 1247              		.cfi_offset 4, -12
 1248              		.cfi_offset 5, -8
 1249              		.cfi_offset 14, -4
 1250 0002 0546     		mov	r5, r0
 1251 0004 0C46     		mov	r4, r1
 931:src/Libraries/STM32F10x_StdPeriph_Driver/src/stm32f10x_flash.c ****   /* Check the parameters */
 1252              		.loc 1 931 3 is_stmt 1 view .LVU301
 1253              	.LVL73:
 933:src/Libraries/STM32F10x_StdPeriph_Driver/src/stm32f10x_flash.c ****   status = FLASH_WaitForLastOperation(ProgramTimeout);
 1254              		.loc 1 933 3 view .LVU302
 934:src/Libraries/STM32F10x_StdPeriph_Driver/src/stm32f10x_flash.c **** 
 1255              		.loc 1 934 3 view .LVU303
 934:src/Libraries/STM32F10x_StdPeriph_Driver/src/stm32f10x_flash.c **** 
 1256              		.loc 1 934 12 is_stmt 0 view .LVU304
 1257 0006 4FF40050 		mov	r0, #8192
 1258              	.LVL74:
 934:src/Libraries/STM32F10x_StdPeriph_Driver/src/stm32f10x_flash.c **** 
 1259              		.loc 1 934 12 view .LVU305
 1260 000a FFF7FEFF 		bl	FLASH_WaitForLastOperation
 1261              	.LVL75:
 936:src/Libraries/STM32F10x_StdPeriph_Driver/src/stm32f10x_flash.c ****   {
 1262              		.loc 1 936 3 is_stmt 1 view .LVU306
 936:src/Libraries/STM32F10x_StdPeriph_Driver/src/stm32f10x_flash.c ****   {
 1263              		.loc 1 936 5 is_stmt 0 view .LVU307
 1264 000e 0428     		cmp	r0, #4
 1265 0010 00D0     		beq	.L115
 1266              	.L113:
 954:src/Libraries/STM32F10x_StdPeriph_Driver/src/stm32f10x_flash.c **** }
 1267              		.loc 1 954 3 is_stmt 1 view .LVU308
 955:src/Libraries/STM32F10x_StdPeriph_Driver/src/stm32f10x_flash.c **** 
 1268              		.loc 1 955 1 is_stmt 0 view .LVU309
 1269 0012 38BD     		pop	{r3, r4, r5, pc}
 1270              	.LVL76:
 1271              	.L115:
 939:src/Libraries/STM32F10x_StdPeriph_Driver/src/stm32f10x_flash.c ****     FLASH->OPTKEYR = FLASH_KEY2;
 1272              		.loc 1 939 5 is_stmt 1 view .LVU310
 939:src/Libraries/STM32F10x_StdPeriph_Driver/src/stm32f10x_flash.c ****     FLASH->OPTKEYR = FLASH_KEY2;
 1273              		.loc 1 939 20 is_stmt 0 view .LVU311
 1274 0014 0C4B     		ldr	r3, .L116
 1275 0016 0D4A     		ldr	r2, .L116+4
 1276 0018 9A60     		str	r2, [r3, #8]
 940:src/Libraries/STM32F10x_StdPeriph_Driver/src/stm32f10x_flash.c ****     /* Enables the Option Bytes Programming operation */
 1277              		.loc 1 940 5 is_stmt 1 view .LVU312
 940:src/Libraries/STM32F10x_StdPeriph_Driver/src/stm32f10x_flash.c ****     /* Enables the Option Bytes Programming operation */
 1278              		.loc 1 940 20 is_stmt 0 view .LVU313
 1279 001a 02F18832 		add	r2, r2, #-2004318072
 1280 001e 9A60     		str	r2, [r3, #8]
 942:src/Libraries/STM32F10x_StdPeriph_Driver/src/stm32f10x_flash.c ****     *(__IO uint16_t*)Address = Data;
 1281              		.loc 1 942 5 is_stmt 1 view .LVU314
 942:src/Libraries/STM32F10x_StdPeriph_Driver/src/stm32f10x_flash.c ****     *(__IO uint16_t*)Address = Data;
 1282              		.loc 1 942 15 is_stmt 0 view .LVU315
 1283 0020 1A69     		ldr	r2, [r3, #16]
 1284 0022 42F01002 		orr	r2, r2, #16
 1285 0026 1A61     		str	r2, [r3, #16]
 943:src/Libraries/STM32F10x_StdPeriph_Driver/src/stm32f10x_flash.c ****     
ARM GAS  C:\Users\dell\AppData\Local\Temp\ccqOk9Jh.s 			page 54


 1286              		.loc 1 943 5 is_stmt 1 view .LVU316
 943:src/Libraries/STM32F10x_StdPeriph_Driver/src/stm32f10x_flash.c ****     
 1287              		.loc 1 943 30 is_stmt 0 view .LVU317
 1288 0028 A1B2     		uxth	r1, r4
 1289 002a 2980     		strh	r1, [r5]	@ movhi
 946:src/Libraries/STM32F10x_StdPeriph_Driver/src/stm32f10x_flash.c ****     if(status != FLASH_TIMEOUT)
 1290              		.loc 1 946 5 is_stmt 1 view .LVU318
 946:src/Libraries/STM32F10x_StdPeriph_Driver/src/stm32f10x_flash.c ****     if(status != FLASH_TIMEOUT)
 1291              		.loc 1 946 14 is_stmt 0 view .LVU319
 1292 002c 4FF40050 		mov	r0, #8192
 1293              	.LVL77:
 946:src/Libraries/STM32F10x_StdPeriph_Driver/src/stm32f10x_flash.c ****     if(status != FLASH_TIMEOUT)
 1294              		.loc 1 946 14 view .LVU320
 1295 0030 FFF7FEFF 		bl	FLASH_WaitForLastOperation
 1296              	.LVL78:
 947:src/Libraries/STM32F10x_StdPeriph_Driver/src/stm32f10x_flash.c ****     {
 1297              		.loc 1 947 5 is_stmt 1 view .LVU321
 947:src/Libraries/STM32F10x_StdPeriph_Driver/src/stm32f10x_flash.c ****     {
 1298              		.loc 1 947 7 is_stmt 0 view .LVU322
 1299 0034 0528     		cmp	r0, #5
 1300 0036 ECD0     		beq	.L113
 950:src/Libraries/STM32F10x_StdPeriph_Driver/src/stm32f10x_flash.c ****     }
 1301              		.loc 1 950 7 is_stmt 1 view .LVU323
 950:src/Libraries/STM32F10x_StdPeriph_Driver/src/stm32f10x_flash.c ****     }
 1302              		.loc 1 950 17 is_stmt 0 view .LVU324
 1303 0038 034A     		ldr	r2, .L116
 1304 003a 1369     		ldr	r3, [r2, #16]
 1305 003c 23F01003 		bic	r3, r3, #16
 1306 0040 DB04     		lsls	r3, r3, #19
 1307 0042 DB0C     		lsrs	r3, r3, #19
 1308 0044 1361     		str	r3, [r2, #16]
 1309 0046 E4E7     		b	.L113
 1310              	.L117:
 1311              		.align	2
 1312              	.L116:
 1313 0048 00200240 		.word	1073881088
 1314 004c 23016745 		.word	1164378403
 1315              		.cfi_endproc
 1316              	.LFE42:
 1318              		.section	.text.FLASH_EnableWriteProtection,"ax",%progbits
 1319              		.align	1
 1320              		.global	FLASH_EnableWriteProtection
 1321              		.syntax unified
 1322              		.thumb
 1323              		.thumb_func
 1324              		.fpu softvfp
 1326              	FLASH_EnableWriteProtection:
 1327              	.LVL79:
 1328              	.LFB43:
 976:src/Libraries/STM32F10x_StdPeriph_Driver/src/stm32f10x_flash.c ****   uint16_t WRP0_Data = 0xFFFF, WRP1_Data = 0xFFFF, WRP2_Data = 0xFFFF, WRP3_Data = 0xFFFF;
 1329              		.loc 1 976 1 is_stmt 1 view -0
 1330              		.cfi_startproc
 1331              		@ args = 0, pretend = 0, frame = 0
 1332              		@ frame_needed = 0, uses_anonymous_args = 0
 976:src/Libraries/STM32F10x_StdPeriph_Driver/src/stm32f10x_flash.c ****   uint16_t WRP0_Data = 0xFFFF, WRP1_Data = 0xFFFF, WRP2_Data = 0xFFFF, WRP3_Data = 0xFFFF;
 1333              		.loc 1 976 1 is_stmt 0 view .LVU326
 1334 0000 F8B5     		push	{r3, r4, r5, r6, r7, lr}
ARM GAS  C:\Users\dell\AppData\Local\Temp\ccqOk9Jh.s 			page 55


 1335              	.LCFI10:
 1336              		.cfi_def_cfa_offset 24
 1337              		.cfi_offset 3, -24
 1338              		.cfi_offset 4, -20
 1339              		.cfi_offset 5, -16
 1340              		.cfi_offset 6, -12
 1341              		.cfi_offset 7, -8
 1342              		.cfi_offset 14, -4
 977:src/Libraries/STM32F10x_StdPeriph_Driver/src/stm32f10x_flash.c ****   
 1343              		.loc 1 977 3 is_stmt 1 view .LVU327
 1344              	.LVL80:
 979:src/Libraries/STM32F10x_StdPeriph_Driver/src/stm32f10x_flash.c ****   
 1345              		.loc 1 979 3 view .LVU328
 982:src/Libraries/STM32F10x_StdPeriph_Driver/src/stm32f10x_flash.c ****   
 1346              		.loc 1 982 3 view .LVU329
 984:src/Libraries/STM32F10x_StdPeriph_Driver/src/stm32f10x_flash.c ****   WRP0_Data = (uint16_t)(FLASH_Pages & WRP0_Mask);
 1347              		.loc 1 984 3 view .LVU330
 984:src/Libraries/STM32F10x_StdPeriph_Driver/src/stm32f10x_flash.c ****   WRP0_Data = (uint16_t)(FLASH_Pages & WRP0_Mask);
 1348              		.loc 1 984 15 is_stmt 0 view .LVU331
 1349 0002 C043     		mvns	r0, r0
 1350              	.LVL81:
 985:src/Libraries/STM32F10x_StdPeriph_Driver/src/stm32f10x_flash.c ****   WRP1_Data = (uint16_t)((FLASH_Pages & WRP1_Mask) >> 8);
 1351              		.loc 1 985 3 is_stmt 1 view .LVU332
 985:src/Libraries/STM32F10x_StdPeriph_Driver/src/stm32f10x_flash.c ****   WRP1_Data = (uint16_t)((FLASH_Pages & WRP1_Mask) >> 8);
 1352              		.loc 1 985 13 is_stmt 0 view .LVU333
 1353 0004 C7B2     		uxtb	r7, r0
 1354              	.LVL82:
 986:src/Libraries/STM32F10x_StdPeriph_Driver/src/stm32f10x_flash.c ****   WRP2_Data = (uint16_t)((FLASH_Pages & WRP2_Mask) >> 16);
 1355              		.loc 1 986 3 is_stmt 1 view .LVU334
 986:src/Libraries/STM32F10x_StdPeriph_Driver/src/stm32f10x_flash.c ****   WRP2_Data = (uint16_t)((FLASH_Pages & WRP2_Mask) >> 16);
 1356              		.loc 1 986 13 is_stmt 0 view .LVU335
 1357 0006 C0F30726 		ubfx	r6, r0, #8, #8
 1358              	.LVL83:
 987:src/Libraries/STM32F10x_StdPeriph_Driver/src/stm32f10x_flash.c ****   WRP3_Data = (uint16_t)((FLASH_Pages & WRP3_Mask) >> 24);
 1359              		.loc 1 987 3 is_stmt 1 view .LVU336
 987:src/Libraries/STM32F10x_StdPeriph_Driver/src/stm32f10x_flash.c ****   WRP3_Data = (uint16_t)((FLASH_Pages & WRP3_Mask) >> 24);
 1360              		.loc 1 987 13 is_stmt 0 view .LVU337
 1361 000a C0F30745 		ubfx	r5, r0, #16, #8
 1362              	.LVL84:
 988:src/Libraries/STM32F10x_StdPeriph_Driver/src/stm32f10x_flash.c ****   
 1363              		.loc 1 988 3 is_stmt 1 view .LVU338
 988:src/Libraries/STM32F10x_StdPeriph_Driver/src/stm32f10x_flash.c ****   
 1364              		.loc 1 988 13 is_stmt 0 view .LVU339
 1365 000e 040E     		lsrs	r4, r0, #24
 1366              	.LVL85:
 991:src/Libraries/STM32F10x_StdPeriph_Driver/src/stm32f10x_flash.c ****   
 1367              		.loc 1 991 3 is_stmt 1 view .LVU340
 991:src/Libraries/STM32F10x_StdPeriph_Driver/src/stm32f10x_flash.c ****   
 1368              		.loc 1 991 12 is_stmt 0 view .LVU341
 1369 0010 4FF40050 		mov	r0, #8192
 1370              	.LVL86:
 991:src/Libraries/STM32F10x_StdPeriph_Driver/src/stm32f10x_flash.c ****   
 1371              		.loc 1 991 12 view .LVU342
 1372 0014 FFF7FEFF 		bl	FLASH_WaitForLastOperation
 1373              	.LVL87:
 993:src/Libraries/STM32F10x_StdPeriph_Driver/src/stm32f10x_flash.c ****   {
 1374              		.loc 1 993 3 is_stmt 1 view .LVU343
ARM GAS  C:\Users\dell\AppData\Local\Temp\ccqOk9Jh.s 			page 56


 993:src/Libraries/STM32F10x_StdPeriph_Driver/src/stm32f10x_flash.c ****   {
 1375              		.loc 1 993 5 is_stmt 0 view .LVU344
 1376 0018 0428     		cmp	r0, #4
 1377 001a 00D0     		beq	.L125
 1378              	.L119:
1036:src/Libraries/STM32F10x_StdPeriph_Driver/src/stm32f10x_flash.c **** }
 1379              		.loc 1 1036 3 is_stmt 1 view .LVU345
1037:src/Libraries/STM32F10x_StdPeriph_Driver/src/stm32f10x_flash.c **** 
 1380              		.loc 1 1037 1 is_stmt 0 view .LVU346
 1381 001c F8BD     		pop	{r3, r4, r5, r6, r7, pc}
 1382              	.LVL88:
 1383              	.L125:
 996:src/Libraries/STM32F10x_StdPeriph_Driver/src/stm32f10x_flash.c ****     FLASH->OPTKEYR = FLASH_KEY2;
 1384              		.loc 1 996 5 is_stmt 1 view .LVU347
 996:src/Libraries/STM32F10x_StdPeriph_Driver/src/stm32f10x_flash.c ****     FLASH->OPTKEYR = FLASH_KEY2;
 1385              		.loc 1 996 20 is_stmt 0 view .LVU348
 1386 001e 1F4B     		ldr	r3, .L130
 1387 0020 1F4A     		ldr	r2, .L130+4
 1388 0022 9A60     		str	r2, [r3, #8]
 997:src/Libraries/STM32F10x_StdPeriph_Driver/src/stm32f10x_flash.c ****     FLASH->CR |= CR_OPTPG_Set;
 1389              		.loc 1 997 5 is_stmt 1 view .LVU349
 997:src/Libraries/STM32F10x_StdPeriph_Driver/src/stm32f10x_flash.c ****     FLASH->CR |= CR_OPTPG_Set;
 1390              		.loc 1 997 20 is_stmt 0 view .LVU350
 1391 0024 02F18832 		add	r2, r2, #-2004318072
 1392 0028 9A60     		str	r2, [r3, #8]
 998:src/Libraries/STM32F10x_StdPeriph_Driver/src/stm32f10x_flash.c ****     if(WRP0_Data != 0xFF)
 1393              		.loc 1 998 5 is_stmt 1 view .LVU351
 998:src/Libraries/STM32F10x_StdPeriph_Driver/src/stm32f10x_flash.c ****     if(WRP0_Data != 0xFF)
